
hw6-3.exe:     file format elf64-x86-64

SYMBOL TABLE:
0000000000000270 l    d  .interp	0000000000000000              .interp
000000000000028c l    d  .note.ABI-tag	0000000000000000              .note.ABI-tag
00000000000002ac l    d  .note.gnu.build-id	0000000000000000              .note.gnu.build-id
00000000000002d0 l    d  .gnu.hash	0000000000000000              .gnu.hash
00000000000002f8 l    d  .dynsym	0000000000000000              .dynsym
0000000000001288 l    d  .dynstr	0000000000000000              .dynstr
0000000000001b02 l    d  .gnu.version	0000000000000000              .gnu.version
0000000000001c50 l    d  .gnu.version_r	0000000000000000              .gnu.version_r
0000000000001dc0 l    d  .rela.dyn	0000000000000000              .rela.dyn
0000000000006938 l    d  .rela.plt	0000000000000000              .rela.plt
00000000000077f0 l    d  .init	0000000000000000              .init
0000000000007810 l    d  .plt	0000000000000000              .plt
00000000000081f0 l    d  .plt.got	0000000000000000              .plt.got
0000000000008200 l    d  .text	0000000000000000              .text
0000000000060a50 l    d  .fini	0000000000000000              .fini
0000000000060a60 l    d  .rodata	0000000000000000              .rodata
000000000006ad00 l    d  __nv_module_id	0000000000000000              __nv_module_id
000000000006ad98 l    d  .nv_fatbin	0000000000000000              .nv_fatbin
000000000006b0b8 l    d  __nv_relfatbin	0000000000000000              __nv_relfatbin
000000000010a4e0 l    d  .eh_frame_hdr	0000000000000000              .eh_frame_hdr
000000000010d150 l    d  .eh_frame	0000000000000000              .eh_frame
0000000000116a48 l    d  .gcc_except_table	0000000000000000              .gcc_except_table
0000000000317430 l    d  .tbss	0000000000000000              .tbss
0000000000317430 l    d  .init_array	0000000000000000              .init_array
00000000003174d8 l    d  .fini_array	0000000000000000              .fini_array
00000000003174e0 l    d  .data.rel.ro	0000000000000000              .data.rel.ro
000000000031a870 l    d  .dynamic	0000000000000000              .dynamic
000000000031aad0 l    d  .got	0000000000000000              .got
000000000031b000 l    d  .data	0000000000000000              .data
000000000031b058 l    d  .nvFatBinSegment	0000000000000000              .nvFatBinSegment
000000000031b0a0 l    d  .bss	0000000000000000              .bss
0000000000000000 l    d  .comment	0000000000000000              .comment
0000000000000000 l    df *ABS*	0000000000000000              crtstuff.c
0000000000008230 l     F .text	0000000000000000              deregister_tm_clones
0000000000008270 l     F .text	0000000000000000              register_tm_clones
00000000000082c0 l     F .text	0000000000000000              __do_global_dtors_aux
000000000031b1b0 l     O .bss	0000000000000001              completed.7698
00000000003174d8 l     O .fini_array	0000000000000000              __do_global_dtors_aux_fini_array_entry
0000000000008300 l     F .text	0000000000000000              frame_dummy
0000000000317438 l     O .init_array	0000000000000000              __frame_dummy_init_array_entry
0000000000000000 l    df *ABS*	0000000000000000              link.stub
000000000031b1c0 l     O .bss	0000000000000008              _ZL20__cudaFatCubinHandle
000000000000830a l     F .text	0000000000000016              __cudaUnregisterBinaryUtil
000000000006ad00 l     O __nv_module_id	0000000000000038              _ZL68def_module_id_str_38_cuda_device_runtime_compute_75_cpp1_ii_8b1a5d37
000000000031b1c8 l     O .bss	0000000000000008              _ZZ77__cudaRegisterLinkedBinary_38_cuda_device_runtime_compute_75_cpp1_ii_8b1a5d37E3__p
0000000000008370 l     F .text	0000000000000111              _ZL26__cudaRegisterLinkedBinaryPK19__fatBinC_Wrapper_tPFvPPvES2_
000000000031b1d0 l     O .bss	0000000000000010              _ZL22__cudaPrelinkedFatbins
000000000006ad98 l       .nv_fatbin	0000000000000000              fatbinData
000000000031b058 l     O .nvFatBinSegment	0000000000000018              _ZL15__fatDeviceText
000000000031b1e0 l     O .bss	0000000000000010              _ZZL26__cudaRegisterLinkedBinaryPK19__fatBinC_Wrapper_tPFvPPvES2_E16__callback_array
000000000031b1f0 l     O .bss	0000000000000004              _ZZL26__cudaRegisterLinkedBinaryPK19__fatBinC_Wrapper_tPFvPPvES2_E3__i
0000000000000000 l    df *ABS*	0000000000000000              tmpxft_00000d3f_00000000-5_hw6-3.cudafe1.cpp
000000000031b1f8 l     O .bss	0000000000000001              _ZL22__nv_inited_managed_rt
000000000031b200 l     O .bss	0000000000000008              _ZL32__nv_fatbinhandle_for_managed_rt
0000000000008481 l     F .text	0000000000000016              _ZL37__nv_save_fatbinhandle_for_managed_rtPPv
0000000000008497 l     F .text	000000000000003d              _ZL3mindd
0000000000060a68 l     O .rodata	0000000000000001              _ZStL19piecewise_construct
000000000031b208 l     O .bss	0000000000000001              _ZStL8__ioinit
0000000000008acf l     F .text	0000000000000025              _Z10cudaMallocIdE9cudaErrorPPT_m
000000000031b210 l     O .bss	0000000000000008              _ZZL22____nv_dummy_param_refPvE5__ref
0000000000008849 l     F .text	0000000000000016              _ZL22____nv_dummy_param_refPv
000000000006ad38 l     O __nv_module_id	000000000000000f              _ZL15__module_id_str
000000000031b218 l     O .bss	0000000000000008              _ZL20__cudaFatCubinHandle
000000000000885f l     F .text	0000000000000022              _ZL26__cudaUnregisterBinaryUtilv
0000000000008881 l     F .text	000000000000001a              _ZL32__nv_init_managed_rt_with_modulePPv
000000000006ada8 l       .nv_fatbin	0000000000000000              fatbinData
000000000031b070 l     O .nvFatBinSegment	0000000000000018              _ZL15__fatDeviceText
000000000031b220 l     O .bss	0000000000000008              _ZZ37__device_stub__Z14cuda_reductionPdiS_PdiS_E3__f
0000000000008af4 l     F .text	0000000000000054              _Z16cudaLaunchKernelIcE9cudaErrorPKT_4dim3S4_PPvmP11CUstream_st
000000000031b228 l     O .bss	0000000000000008              _ZZL31__nv_cudaEntityRegisterCallbackPPvE5__ref
0000000000008a1c l     F .text	000000000000005f              _ZL31__nv_cudaEntityRegisterCallbackPPv
0000000000008a7b l     F .text	0000000000000054              _ZL24__sti____cudaRegisterAllv
0000000000008b48 l     F .text	0000000000000049              _Z41__static_initialization_and_destruction_0ii
0000000000008b91 l     F .text	0000000000000015              _GLOBAL__sub_I__Z13CPU_reductionPdi
0000000000000000 l    df *ABS*	0000000000000000              cuda_device_runtime.compute_75.cudafe1.cpp
000000000006b0b8 l       __nv_relfatbin	0000000000000000              fatbinData
000000000000db00 l     F .text	0000000000000021              _GLOBAL__I_cudartErrorTable
0000000000008be0 l     F .text	0000000000000008              _Z22____nv_dummy_param_refPv
000000000031b258 l     O .bss	0000000000000008              _ZZ22____nv_dummy_param_refPvE5__ref
0000000000008bf0 l     F .text	0000000000000021              _Z24__sti____cudaRegisterAllv
000000000006ad60 l     O __nv_module_id	0000000000000034              __module_id_str
0000000000008c20 l     F .text	0000000000000ad4              _Z31__nv_cudaEntityRegisterCallbackPPv
0000000000009930 l     F .text	0000000000000005              _Z16memcpy_3d_deviceImLi1ELi1ELi1EEvPKhPhT_S3_S3_S3_S3_S3_S3_jjjjjjjjS3_S1_S2_
000000000031b360 l     O .bss	0000000000000008              _ZZ31__nv_cudaEntityRegisterCallbackPPvE5__ref
000000000031b368 l     O .bss	0000000000000008              __nv_fatbinhandle_for_managed_rt
0000000000009b70 l     F .text	0000000000000005              _Z16memcpy_3d_deviceImLi1ELi1ELi0EEvPKhPhT_S3_S3_S3_S3_S3_S3_jjjjjjjjS3_S1_S2_
0000000000009db0 l     F .text	0000000000000005              _Z16memcpy_3d_deviceImLi1ELi0ELi1EEvPKhPhT_S3_S3_S3_S3_S3_S3_jjjjjjjjS3_S1_S2_
0000000000009ff0 l     F .text	0000000000000005              _Z16memcpy_3d_deviceImLi1ELi0ELi0EEvPKhPhT_S3_S3_S3_S3_S3_S3_jjjjjjjjS3_S1_S2_
000000000000a230 l     F .text	0000000000000005              _Z16memcpy_3d_deviceImLi0ELi1ELi1EEvPKhPhT_S3_S3_S3_S3_S3_S3_jjjjjjjjS3_S1_S2_
000000000000a470 l     F .text	0000000000000005              _Z16memcpy_3d_deviceImLi0ELi1ELi0EEvPKhPhT_S3_S3_S3_S3_S3_S3_jjjjjjjjS3_S1_S2_
000000000000a6b0 l     F .text	0000000000000005              _Z16memcpy_3d_deviceImLi0ELi0ELi1EEvPKhPhT_S3_S3_S3_S3_S3_S3_jjjjjjjjS3_S1_S2_
000000000000a8f0 l     F .text	0000000000000005              _Z16memcpy_3d_deviceImLi0ELi0ELi0EEvPKhPhT_S3_S3_S3_S3_S3_S3_jjjjjjjjS3_S1_S2_
000000000000ab20 l     F .text	0000000000000005              _Z16memcpy_3d_deviceIjLi1ELi1ELi1EEvPKhPhT_S3_S3_S3_S3_S3_S3_jjjjjjjjS3_S1_S2_
000000000000ad50 l     F .text	0000000000000005              _Z16memcpy_3d_deviceIjLi1ELi1ELi0EEvPKhPhT_S3_S3_S3_S3_S3_S3_jjjjjjjjS3_S1_S2_
000000000000af80 l     F .text	0000000000000005              _Z16memcpy_3d_deviceIjLi1ELi0ELi1EEvPKhPhT_S3_S3_S3_S3_S3_S3_jjjjjjjjS3_S1_S2_
000000000000b1b0 l     F .text	0000000000000005              _Z16memcpy_3d_deviceIjLi1ELi0ELi0EEvPKhPhT_S3_S3_S3_S3_S3_S3_jjjjjjjjS3_S1_S2_
000000000000b3e0 l     F .text	0000000000000005              _Z16memcpy_3d_deviceIjLi0ELi1ELi1EEvPKhPhT_S3_S3_S3_S3_S3_S3_jjjjjjjjS3_S1_S2_
000000000000b610 l     F .text	0000000000000005              _Z16memcpy_3d_deviceIjLi0ELi1ELi0EEvPKhPhT_S3_S3_S3_S3_S3_S3_jjjjjjjjS3_S1_S2_
000000000000b840 l     F .text	0000000000000005              _Z16memcpy_3d_deviceIjLi0ELi0ELi1EEvPKhPhT_S3_S3_S3_S3_S3_S3_jjjjjjjjS3_S1_S2_
000000000000ba70 l     F .text	0000000000000005              _Z16memcpy_3d_deviceIjLi0ELi0ELi0EEvPKhPhT_S3_S3_S3_S3_S3_S3_jjjjjjjjS3_S1_S2_
000000000000bc80 l     F .text	0000000000000009              _Z16memset_3d_deviceImLi1ELi1ELi1EEvPhhjT_S1_S1_S1_S1_jjjjjjjS1_S0_
000000000000be90 l     F .text	0000000000000009              _Z16memset_3d_deviceImLi1ELi1ELi0EEvPhhjT_S1_S1_S1_S1_jjjjjjjS1_S0_
000000000000c0a0 l     F .text	0000000000000009              _Z16memset_3d_deviceImLi1ELi0ELi1EEvPhhjT_S1_S1_S1_S1_jjjjjjjS1_S0_
000000000000c2b0 l     F .text	0000000000000009              _Z16memset_3d_deviceImLi1ELi0ELi0EEvPhhjT_S1_S1_S1_S1_jjjjjjjS1_S0_
000000000000c4c0 l     F .text	0000000000000009              _Z16memset_3d_deviceImLi0ELi1ELi1EEvPhhjT_S1_S1_S1_S1_jjjjjjjS1_S0_
000000000000c6d0 l     F .text	0000000000000009              _Z16memset_3d_deviceImLi0ELi1ELi0EEvPhhjT_S1_S1_S1_S1_jjjjjjjS1_S0_
000000000000c8e0 l     F .text	0000000000000009              _Z16memset_3d_deviceImLi0ELi0ELi1EEvPhhjT_S1_S1_S1_S1_jjjjjjjS1_S0_
000000000000caf0 l     F .text	0000000000000009              _Z16memset_3d_deviceImLi0ELi0ELi0EEvPhhjT_S1_S1_S1_S1_jjjjjjjS1_S0_
000000000000ccf0 l     F .text	0000000000000009              _Z16memset_3d_deviceIjLi1ELi1ELi1EEvPhhjT_S1_S1_S1_S1_jjjjjjjS1_S0_
000000000000cef0 l     F .text	0000000000000009              _Z16memset_3d_deviceIjLi1ELi1ELi0EEvPhhjT_S1_S1_S1_S1_jjjjjjjS1_S0_
000000000000d0f0 l     F .text	0000000000000009              _Z16memset_3d_deviceIjLi1ELi0ELi1EEvPhhjT_S1_S1_S1_S1_jjjjjjjS1_S0_
000000000000d2f0 l     F .text	0000000000000009              _Z16memset_3d_deviceIjLi1ELi0ELi0EEvPhhjT_S1_S1_S1_S1_jjjjjjjS1_S0_
000000000000d4f0 l     F .text	0000000000000009              _Z16memset_3d_deviceIjLi0ELi1ELi1EEvPhhjT_S1_S1_S1_S1_jjjjjjjS1_S0_
000000000000d6f0 l     F .text	0000000000000009              _Z16memset_3d_deviceIjLi0ELi1ELi0EEvPhhjT_S1_S1_S1_S1_jjjjjjjS1_S0_
000000000000d8f0 l     F .text	0000000000000009              _Z16memset_3d_deviceIjLi0ELi0ELi1EEvPhhjT_S1_S1_S1_S1_jjjjjjjS1_S0_
000000000000daf0 l     F .text	0000000000000009              _Z16memset_3d_deviceIjLi0ELi0ELi0EEvPhhjT_S1_S1_S1_S1_jjjjjjjS1_S0_
000000000031b260 l     O .bss	0000000000000040              set_kernel32
000000000031b2a0 l     O .bss	0000000000000040              set_kernel64
000000000031b2e0 l     O .bss	0000000000000040              cpy_kernel32
000000000031b320 l     O .bss	0000000000000040              cpy_kernel64
00000000003174e0 l     O .data.rel.ro	0000000000000a20              cudartErrorTableArr
0000000000063cc0 l     O .rodata	0000000000000068              cudartErrorCnpMapArr
0000000000009700 l     F .text	0000000000000224              _Z92__device_stub__Z16memcpy_3d_deviceImLi1ELi1ELi1EEvPKhPhT_S3_S3_S3_S3_S3_S3_jjjjjjjjS3_S1_S2_PKhPhmmmmmmmjjjjjjjjmS0_S1_
000000000031b468 l     O .bss	0000000000000008              _ZZ92__device_stub__Z16memcpy_3d_deviceImLi1ELi1ELi1EEvPKhPhT_S3_S3_S3_S3_S3_S3_jjjjjjjjS3_S1_S2_PKhPhmmmmmmmjjjjjjjjmS0_S1_E3__f
0000000000009940 l     F .text	0000000000000224              _Z92__device_stub__Z16memcpy_3d_deviceImLi1ELi1ELi0EEvPKhPhT_S3_S3_S3_S3_S3_S3_jjjjjjjjS3_S1_S2_PKhPhmmmmmmmjjjjjjjjmS0_S1_
000000000031b460 l     O .bss	0000000000000008              _ZZ92__device_stub__Z16memcpy_3d_deviceImLi1ELi1ELi0EEvPKhPhT_S3_S3_S3_S3_S3_S3_jjjjjjjjS3_S1_S2_PKhPhmmmmmmmjjjjjjjjmS0_S1_E3__f
0000000000009b80 l     F .text	0000000000000224              _Z92__device_stub__Z16memcpy_3d_deviceImLi1ELi0ELi1EEvPKhPhT_S3_S3_S3_S3_S3_S3_jjjjjjjjS3_S1_S2_PKhPhmmmmmmmjjjjjjjjmS0_S1_
000000000031b458 l     O .bss	0000000000000008              _ZZ92__device_stub__Z16memcpy_3d_deviceImLi1ELi0ELi1EEvPKhPhT_S3_S3_S3_S3_S3_S3_jjjjjjjjS3_S1_S2_PKhPhmmmmmmmjjjjjjjjmS0_S1_E3__f
0000000000009dc0 l     F .text	0000000000000224              _Z92__device_stub__Z16memcpy_3d_deviceImLi1ELi0ELi0EEvPKhPhT_S3_S3_S3_S3_S3_S3_jjjjjjjjS3_S1_S2_PKhPhmmmmmmmjjjjjjjjmS0_S1_
000000000031b450 l     O .bss	0000000000000008              _ZZ92__device_stub__Z16memcpy_3d_deviceImLi1ELi0ELi0EEvPKhPhT_S3_S3_S3_S3_S3_S3_jjjjjjjjS3_S1_S2_PKhPhmmmmmmmjjjjjjjjmS0_S1_E3__f
000000000000a000 l     F .text	0000000000000224              _Z92__device_stub__Z16memcpy_3d_deviceImLi0ELi1ELi1EEvPKhPhT_S3_S3_S3_S3_S3_S3_jjjjjjjjS3_S1_S2_PKhPhmmmmmmmjjjjjjjjmS0_S1_
000000000031b448 l     O .bss	0000000000000008              _ZZ92__device_stub__Z16memcpy_3d_deviceImLi0ELi1ELi1EEvPKhPhT_S3_S3_S3_S3_S3_S3_jjjjjjjjS3_S1_S2_PKhPhmmmmmmmjjjjjjjjmS0_S1_E3__f
000000000000a240 l     F .text	0000000000000224              _Z92__device_stub__Z16memcpy_3d_deviceImLi0ELi1ELi0EEvPKhPhT_S3_S3_S3_S3_S3_S3_jjjjjjjjS3_S1_S2_PKhPhmmmmmmmjjjjjjjjmS0_S1_
000000000031b440 l     O .bss	0000000000000008              _ZZ92__device_stub__Z16memcpy_3d_deviceImLi0ELi1ELi0EEvPKhPhT_S3_S3_S3_S3_S3_S3_jjjjjjjjS3_S1_S2_PKhPhmmmmmmmjjjjjjjjmS0_S1_E3__f
000000000000a480 l     F .text	0000000000000224              _Z92__device_stub__Z16memcpy_3d_deviceImLi0ELi0ELi1EEvPKhPhT_S3_S3_S3_S3_S3_S3_jjjjjjjjS3_S1_S2_PKhPhmmmmmmmjjjjjjjjmS0_S1_
000000000031b438 l     O .bss	0000000000000008              _ZZ92__device_stub__Z16memcpy_3d_deviceImLi0ELi0ELi1EEvPKhPhT_S3_S3_S3_S3_S3_S3_jjjjjjjjS3_S1_S2_PKhPhmmmmmmmjjjjjjjjmS0_S1_E3__f
000000000000a6c0 l     F .text	0000000000000224              _Z92__device_stub__Z16memcpy_3d_deviceImLi0ELi0ELi0EEvPKhPhT_S3_S3_S3_S3_S3_S3_jjjjjjjjS3_S1_S2_PKhPhmmmmmmmjjjjjjjjmS0_S1_
000000000031b430 l     O .bss	0000000000000008              _ZZ92__device_stub__Z16memcpy_3d_deviceImLi0ELi0ELi0EEvPKhPhT_S3_S3_S3_S3_S3_S3_jjjjjjjjS3_S1_S2_PKhPhmmmmmmmjjjjjjjjmS0_S1_E3__f
000000000000a900 l     F .text	000000000000021c              _Z92__device_stub__Z16memcpy_3d_deviceIjLi1ELi1ELi1EEvPKhPhT_S3_S3_S3_S3_S3_S3_jjjjjjjjS3_S1_S2_PKhPhjjjjjjjjjjjjjjjjS0_S1_
000000000031b428 l     O .bss	0000000000000008              _ZZ92__device_stub__Z16memcpy_3d_deviceIjLi1ELi1ELi1EEvPKhPhT_S3_S3_S3_S3_S3_S3_jjjjjjjjS3_S1_S2_PKhPhjjjjjjjjjjjjjjjjS0_S1_E3__f
000000000000ab30 l     F .text	000000000000021c              _Z92__device_stub__Z16memcpy_3d_deviceIjLi1ELi1ELi0EEvPKhPhT_S3_S3_S3_S3_S3_S3_jjjjjjjjS3_S1_S2_PKhPhjjjjjjjjjjjjjjjjS0_S1_
000000000031b420 l     O .bss	0000000000000008              _ZZ92__device_stub__Z16memcpy_3d_deviceIjLi1ELi1ELi0EEvPKhPhT_S3_S3_S3_S3_S3_S3_jjjjjjjjS3_S1_S2_PKhPhjjjjjjjjjjjjjjjjS0_S1_E3__f
000000000000ad60 l     F .text	000000000000021c              _Z92__device_stub__Z16memcpy_3d_deviceIjLi1ELi0ELi1EEvPKhPhT_S3_S3_S3_S3_S3_S3_jjjjjjjjS3_S1_S2_PKhPhjjjjjjjjjjjjjjjjS0_S1_
000000000031b418 l     O .bss	0000000000000008              _ZZ92__device_stub__Z16memcpy_3d_deviceIjLi1ELi0ELi1EEvPKhPhT_S3_S3_S3_S3_S3_S3_jjjjjjjjS3_S1_S2_PKhPhjjjjjjjjjjjjjjjjS0_S1_E3__f
000000000000af90 l     F .text	000000000000021c              _Z92__device_stub__Z16memcpy_3d_deviceIjLi1ELi0ELi0EEvPKhPhT_S3_S3_S3_S3_S3_S3_jjjjjjjjS3_S1_S2_PKhPhjjjjjjjjjjjjjjjjS0_S1_
000000000031b410 l     O .bss	0000000000000008              _ZZ92__device_stub__Z16memcpy_3d_deviceIjLi1ELi0ELi0EEvPKhPhT_S3_S3_S3_S3_S3_S3_jjjjjjjjS3_S1_S2_PKhPhjjjjjjjjjjjjjjjjS0_S1_E3__f
000000000000b1c0 l     F .text	000000000000021c              _Z92__device_stub__Z16memcpy_3d_deviceIjLi0ELi1ELi1EEvPKhPhT_S3_S3_S3_S3_S3_S3_jjjjjjjjS3_S1_S2_PKhPhjjjjjjjjjjjjjjjjS0_S1_
000000000031b408 l     O .bss	0000000000000008              _ZZ92__device_stub__Z16memcpy_3d_deviceIjLi0ELi1ELi1EEvPKhPhT_S3_S3_S3_S3_S3_S3_jjjjjjjjS3_S1_S2_PKhPhjjjjjjjjjjjjjjjjS0_S1_E3__f
000000000000b3f0 l     F .text	000000000000021c              _Z92__device_stub__Z16memcpy_3d_deviceIjLi0ELi1ELi0EEvPKhPhT_S3_S3_S3_S3_S3_S3_jjjjjjjjS3_S1_S2_PKhPhjjjjjjjjjjjjjjjjS0_S1_
000000000031b400 l     O .bss	0000000000000008              _ZZ92__device_stub__Z16memcpy_3d_deviceIjLi0ELi1ELi0EEvPKhPhT_S3_S3_S3_S3_S3_S3_jjjjjjjjS3_S1_S2_PKhPhjjjjjjjjjjjjjjjjS0_S1_E3__f
000000000000b620 l     F .text	000000000000021c              _Z92__device_stub__Z16memcpy_3d_deviceIjLi0ELi0ELi1EEvPKhPhT_S3_S3_S3_S3_S3_S3_jjjjjjjjS3_S1_S2_PKhPhjjjjjjjjjjjjjjjjS0_S1_
000000000031b3f8 l     O .bss	0000000000000008              _ZZ92__device_stub__Z16memcpy_3d_deviceIjLi0ELi0ELi1EEvPKhPhT_S3_S3_S3_S3_S3_S3_jjjjjjjjS3_S1_S2_PKhPhjjjjjjjjjjjjjjjjS0_S1_E3__f
000000000000b850 l     F .text	000000000000021c              _Z92__device_stub__Z16memcpy_3d_deviceIjLi0ELi0ELi0EEvPKhPhT_S3_S3_S3_S3_S3_S3_jjjjjjjjS3_S1_S2_PKhPhjjjjjjjjjjjjjjjjS0_S1_
000000000031b3f0 l     O .bss	0000000000000008              _ZZ92__device_stub__Z16memcpy_3d_deviceIjLi0ELi0ELi0EEvPKhPhT_S3_S3_S3_S3_S3_S3_jjjjjjjjS3_S1_S2_PKhPhjjjjjjjjjjjjjjjjS0_S1_E3__f
000000000000ba80 l     F .text	00000000000001f3              _Z81__device_stub__Z16memset_3d_deviceImLi1ELi1ELi1EEvPhhjT_S1_S1_S1_S1_jjjjjjjS1_S0_PhhjmmmmmjjjjjjjmS_
000000000031b3e8 l     O .bss	0000000000000008              _ZZ81__device_stub__Z16memset_3d_deviceImLi1ELi1ELi1EEvPhhjT_S1_S1_S1_S1_jjjjjjjS1_S0_PhhjmmmmmjjjjjjjmS_E3__f
000000000000bc90 l     F .text	00000000000001f3              _Z81__device_stub__Z16memset_3d_deviceImLi1ELi1ELi0EEvPhhjT_S1_S1_S1_S1_jjjjjjjS1_S0_PhhjmmmmmjjjjjjjmS_
000000000031b3e0 l     O .bss	0000000000000008              _ZZ81__device_stub__Z16memset_3d_deviceImLi1ELi1ELi0EEvPhhjT_S1_S1_S1_S1_jjjjjjjS1_S0_PhhjmmmmmjjjjjjjmS_E3__f
000000000000bea0 l     F .text	00000000000001f3              _Z81__device_stub__Z16memset_3d_deviceImLi1ELi0ELi1EEvPhhjT_S1_S1_S1_S1_jjjjjjjS1_S0_PhhjmmmmmjjjjjjjmS_
000000000031b3d8 l     O .bss	0000000000000008              _ZZ81__device_stub__Z16memset_3d_deviceImLi1ELi0ELi1EEvPhhjT_S1_S1_S1_S1_jjjjjjjS1_S0_PhhjmmmmmjjjjjjjmS_E3__f
000000000000c0b0 l     F .text	00000000000001f3              _Z81__device_stub__Z16memset_3d_deviceImLi1ELi0ELi0EEvPhhjT_S1_S1_S1_S1_jjjjjjjS1_S0_PhhjmmmmmjjjjjjjmS_
000000000031b3d0 l     O .bss	0000000000000008              _ZZ81__device_stub__Z16memset_3d_deviceImLi1ELi0ELi0EEvPhhjT_S1_S1_S1_S1_jjjjjjjS1_S0_PhhjmmmmmjjjjjjjmS_E3__f
000000000000c2c0 l     F .text	00000000000001f3              _Z81__device_stub__Z16memset_3d_deviceImLi0ELi1ELi1EEvPhhjT_S1_S1_S1_S1_jjjjjjjS1_S0_PhhjmmmmmjjjjjjjmS_
000000000031b3c8 l     O .bss	0000000000000008              _ZZ81__device_stub__Z16memset_3d_deviceImLi0ELi1ELi1EEvPhhjT_S1_S1_S1_S1_jjjjjjjS1_S0_PhhjmmmmmjjjjjjjmS_E3__f
000000000000c4d0 l     F .text	00000000000001f3              _Z81__device_stub__Z16memset_3d_deviceImLi0ELi1ELi0EEvPhhjT_S1_S1_S1_S1_jjjjjjjS1_S0_PhhjmmmmmjjjjjjjmS_
000000000031b3c0 l     O .bss	0000000000000008              _ZZ81__device_stub__Z16memset_3d_deviceImLi0ELi1ELi0EEvPhhjT_S1_S1_S1_S1_jjjjjjjS1_S0_PhhjmmmmmjjjjjjjmS_E3__f
000000000000c6e0 l     F .text	00000000000001f3              _Z81__device_stub__Z16memset_3d_deviceImLi0ELi0ELi1EEvPhhjT_S1_S1_S1_S1_jjjjjjjS1_S0_PhhjmmmmmjjjjjjjmS_
000000000031b3b8 l     O .bss	0000000000000008              _ZZ81__device_stub__Z16memset_3d_deviceImLi0ELi0ELi1EEvPhhjT_S1_S1_S1_S1_jjjjjjjS1_S0_PhhjmmmmmjjjjjjjmS_E3__f
000000000000c8f0 l     F .text	00000000000001f3              _Z81__device_stub__Z16memset_3d_deviceImLi0ELi0ELi0EEvPhhjT_S1_S1_S1_S1_jjjjjjjS1_S0_PhhjmmmmmjjjjjjjmS_
000000000031b3b0 l     O .bss	0000000000000008              _ZZ81__device_stub__Z16memset_3d_deviceImLi0ELi0ELi0EEvPhhjT_S1_S1_S1_S1_jjjjjjjS1_S0_PhhjmmmmmjjjjjjjmS_E3__f
000000000000cb00 l     F .text	00000000000001ec              _Z81__device_stub__Z16memset_3d_deviceIjLi1ELi1ELi1EEvPhhjT_S1_S1_S1_S1_jjjjjjjS1_S0_PhhjjjjjjjjjjjjjjS_
000000000031b3a8 l     O .bss	0000000000000008              _ZZ81__device_stub__Z16memset_3d_deviceIjLi1ELi1ELi1EEvPhhjT_S1_S1_S1_S1_jjjjjjjS1_S0_PhhjjjjjjjjjjjjjjS_E3__f
000000000000cd00 l     F .text	00000000000001ec              _Z81__device_stub__Z16memset_3d_deviceIjLi1ELi1ELi0EEvPhhjT_S1_S1_S1_S1_jjjjjjjS1_S0_PhhjjjjjjjjjjjjjjS_
000000000031b3a0 l     O .bss	0000000000000008              _ZZ81__device_stub__Z16memset_3d_deviceIjLi1ELi1ELi0EEvPhhjT_S1_S1_S1_S1_jjjjjjjS1_S0_PhhjjjjjjjjjjjjjjS_E3__f
000000000000cf00 l     F .text	00000000000001ec              _Z81__device_stub__Z16memset_3d_deviceIjLi1ELi0ELi1EEvPhhjT_S1_S1_S1_S1_jjjjjjjS1_S0_PhhjjjjjjjjjjjjjjS_
000000000031b398 l     O .bss	0000000000000008              _ZZ81__device_stub__Z16memset_3d_deviceIjLi1ELi0ELi1EEvPhhjT_S1_S1_S1_S1_jjjjjjjS1_S0_PhhjjjjjjjjjjjjjjS_E3__f
000000000000d100 l     F .text	00000000000001ec              _Z81__device_stub__Z16memset_3d_deviceIjLi1ELi0ELi0EEvPhhjT_S1_S1_S1_S1_jjjjjjjS1_S0_PhhjjjjjjjjjjjjjjS_
000000000031b390 l     O .bss	0000000000000008              _ZZ81__device_stub__Z16memset_3d_deviceIjLi1ELi0ELi0EEvPhhjT_S1_S1_S1_S1_jjjjjjjS1_S0_PhhjjjjjjjjjjjjjjS_E3__f
000000000000d300 l     F .text	00000000000001ec              _Z81__device_stub__Z16memset_3d_deviceIjLi0ELi1ELi1EEvPhhjT_S1_S1_S1_S1_jjjjjjjS1_S0_PhhjjjjjjjjjjjjjjS_
000000000031b388 l     O .bss	0000000000000008              _ZZ81__device_stub__Z16memset_3d_deviceIjLi0ELi1ELi1EEvPhhjT_S1_S1_S1_S1_jjjjjjjS1_S0_PhhjjjjjjjjjjjjjjS_E3__f
000000000000d500 l     F .text	00000000000001ec              _Z81__device_stub__Z16memset_3d_deviceIjLi0ELi1ELi0EEvPhhjT_S1_S1_S1_S1_jjjjjjjS1_S0_PhhjjjjjjjjjjjjjjS_
000000000031b380 l     O .bss	0000000000000008              _ZZ81__device_stub__Z16memset_3d_deviceIjLi0ELi1ELi0EEvPhhjT_S1_S1_S1_S1_jjjjjjjS1_S0_PhhjjjjjjjjjjjjjjS_E3__f
000000000000d700 l     F .text	00000000000001ec              _Z81__device_stub__Z16memset_3d_deviceIjLi0ELi0ELi1EEvPhhjT_S1_S1_S1_S1_jjjjjjjS1_S0_PhhjjjjjjjjjjjjjjS_
000000000031b378 l     O .bss	0000000000000008              _ZZ81__device_stub__Z16memset_3d_deviceIjLi0ELi0ELi1EEvPhhjT_S1_S1_S1_S1_jjjjjjjS1_S0_PhhjjjjjjjjjjjjjjS_E3__f
000000000000d900 l     F .text	00000000000001ec              _Z81__device_stub__Z16memset_3d_deviceIjLi0ELi0ELi0EEvPhhjT_S1_S1_S1_S1_jjjjjjjS1_S0_PhhjjjjjjjjjjjjjjS_
000000000031b370 l     O .bss	0000000000000008              _ZZ81__device_stub__Z16memset_3d_deviceIjLi0ELi0ELi0EEvPhhjT_S1_S1_S1_S1_jjjjjjjS1_S0_PhhjjjjjjjjjjjjjjS_E3__f
0000000000000000 l    df *ABS*	0000000000000000              cuda_runtime_api.cpp
00000000000189e0 l     F .text	00000000000000d7              _GLOBAL__I__ZN6cudart14getCudartErrorE14cudaError_enum
000000000000dff0 l     F .text	00000000000000c1              _Z23cudaguidstructstampinitv
000000000031b020 l     O .data	0000000000000020              cudaguidstructstamp
000000000000e0c0 l     F .text	0000000000000002              _Z41__static_initialization_and_destruction_0ii
000000000000e280 l     F .text	00000000000000ef              _ZN6cudart33cudaApiStreamGetCaptureInfoCommonEP11CUstream_stP23cudaStreamCaptureStatusPyb
000000000000e390 l     F .text	00000000000000d4              _ZN6cudart30cudaApiStreamIsCapturingCommonEP11CUstream_stP23cudaStreamCaptureStatusb
000000000000e490 l     F .text	000000000000009f              _ZN6cudart29cudaApiStreamEndCaptureCommonEP11CUstream_stPP10CUgraph_stb
000000000000e550 l     F .text	000000000000009f              _ZN6cudart31cudaApiStreamBeginCaptureCommonEP11CUstream_st21cudaStreamCaptureModeb
000000000000e610 l     F .text	000000000000009f              _ZN6cudart24cudaApiGraphLaunchCommonEP14CUgraphExec_stP11CUstream_stb
000000000000e6d0 l     F .text	00000000000000cf              _ZN6cudart29cudaApiMemPrefetchAsyncCommonEPKvmiP11CUstream_stb
000000000000e7c0 l     F .text	00000000000000b2              _ZN6cudart27cudaApiLaunchHostFuncCommonEP11CUstream_stPFvPvES2_b
000000000000e8a0 l     F .text	000000000000009f              _ZN6cudart24cudaApiEventRecordCommonEP10CUevent_stP11CUstream_stb
000000000000e960 l     F .text	0000000000000095              _ZN6cudart24cudaApiStreamQueryCommonEP11CUstream_stb
000000000000ea20 l     F .text	00000000000000cf              _ZN6cudart33cudaApiStreamAttachMemAsyncCommonEP11CUstream_stPvmjb
000000000000eb10 l     F .text	000000000000009f              _ZN6cudart27cudaApiStreamGetFlagsCommonEP11CUstream_stPjb
000000000000ebd0 l     F .text	000000000000009f              _ZN6cudart30cudaApiStreamGetPriorityCommonEP11CUstream_stPib
000000000000f1b0 l     F .text	0000000000000a62              _ZN6cudart18getRuntimeEglFrameEP15cudaEglFrame_st13CUeglFrame_st
0000000000010190 l     F .text	000000000000022f              _ZN6cudart30cudaApiMemcpy3DPeerAsyncCommonEPK21cudaMemcpy3DPeerParmsP11CUstream_stb
00000000000103e0 l     F .text	000000000000021a              _ZN6cudart25cudaApiMemcpy3DPeerCommonEPK21cudaMemcpy3DPeerParmsb
0000000000011a30 l     F .text	000000000000027b              _ZN6cudart40cudaApiWaitExternalSemaphoresAsyncCommonEPKP22CUexternalSemaphore_stPK31cudaExternalSemaphoreWaitParamsjP11CUstream_stb
0000000000011cd0 l     F .text	000000000000027b              _ZN6cudart42cudaApiSignalExternalSemaphoresAsyncCommonEPKP22CUexternalSemaphore_stPK33cudaExternalSemaphoreSignalParamsjP11CUstream_stb
0000000000011f70 l     F .text	00000000000000ff              _ZN6cudart30cudaApiStreamAddCallbackCommonEP11CUstream_stPFvS1_9cudaErrorPvES3_jb
0000000000015d50 l     F .text	0000000000000013              _ZN6cudart27cudaStreamRtCallbackWrapperEP11CUstream_st14cudaError_enumPv
0000000000063fd0 l     O .rodata	0000000000000011              _ZZ16__cudaInitModuleE12__FUNCTION__
000000000001a4a0 l     F .text	0000000000000237              _ZN6cudart36cudaApiLaunchCooperativeKernelCommonEPKv4dim3S2_PPvmP11CUstream_stb
000000000001a760 l     F .text	0000000000000254              _ZN6cudart25cudaApiLaunchKernelCommonEPKv4dim3S2_PPvmP11CUstream_stb
000000000001aca0 l     F .text	000000000000011f              _ZN6cudart34cudaApiMemcpyFromSymbolAsyncCommonEPvPKvmm14cudaMemcpyKindP11CUstream_stb
000000000001ae00 l     F .text	0000000000000109              _ZN6cudart29cudaApiMemcpyFromSymbolCommonEPvPKvmm14cudaMemcpyKindb
000000000001af30 l     F .text	000000000000012d              _ZN6cudart32cudaApiMemcpyToSymbolAsyncCommonEPKvS1_mm14cudaMemcpyKindP11CUstream_stb
000000000001b0a0 l     F .text	0000000000000117              _ZN6cudart27cudaApiMemcpyToSymbolCommonEPKvS1_mm14cudaMemcpyKindb
000000000031b480 l     O .bss	0000000000000001              _ZN6cudart7nothrowE
0000000000000000 l    df *ABS*	0000000000000000              cudart_global.cpp
0000000000021f40 l     F .text	000000000000000c              _GLOBAL__I.00150__ZN6cudart12__fun_cuInitE
0000000000021f30 l     F .text	000000000000000c              _GLOBAL__I__ZN6cudart12__fun_cuInitE
000000000001b9e0 l     F .text	0000000000000006              _ZN6cudart15__unimpl_cuInitEj
000000000001b9f0 l     F .text	0000000000000006              _ZN6cudart20__unimpl_cuDeviceGetEPii
000000000001ba00 l     F .text	0000000000000006              _ZN6cudart25__unimpl_cuDeviceGetCountEPi
000000000001ba10 l     F .text	0000000000000006              _ZN6cudart24__unimpl_cuDeviceGetNameEPcii
000000000001ba20 l     F .text	0000000000000006              _ZN6cudart28__unimpl_cuDeviceTotalMem_v2EPmi
000000000001ba30 l     F .text	0000000000000006              _ZN6cudart29__unimpl_cuDeviceGetAttributeEPi23CUdevice_attribute_enumi
000000000001ba40 l     F .text	0000000000000006              _ZN6cudart32__unimpl_cuDeviceGetP2PAttributeEPi26CUdevice_P2PAttribute_enumii
000000000001ba50 l     F .text	0000000000000006              _ZN6cudart27__unimpl_cuDriverGetVersionEPi
000000000001ba60 l     F .text	0000000000000006              _ZN6cudart30__unimpl_cuDeviceGetByPCIBusIdEPiPKc
000000000001ba70 l     F .text	0000000000000006              _ZN6cudart28__unimpl_cuDeviceGetPCIBusIdEPcii
000000000001ba80 l     F .text	0000000000000006              _ZN6cudart24__unimpl_cuDeviceGetUuidEP9CUuuid_sti
000000000001ba90 l     F .text	0000000000000006              _ZN6cudart33__unimpl_cuDevicePrimaryCtxRetainEPP8CUctx_sti
000000000001baa0 l     F .text	0000000000000006              _ZN6cudart34__unimpl_cuDevicePrimaryCtxReleaseEi
000000000001bab0 l     F .text	0000000000000006              _ZN6cudart35__unimpl_cuDevicePrimaryCtxSetFlagsEij
000000000001bac0 l     F .text	0000000000000006              _ZN6cudart35__unimpl_cuDevicePrimaryCtxGetStateEiPjPi
000000000001bad0 l     F .text	0000000000000006              _ZN6cudart32__unimpl_cuDevicePrimaryCtxResetEi
000000000001bae0 l     F .text	0000000000000006              _ZN6cudart23__unimpl_cuCtxCreate_v2EPP8CUctx_stji
000000000001baf0 l     F .text	0000000000000006              _ZN6cudart22__unimpl_cuCtxGetFlagsEPj
000000000001bb00 l     F .text	0000000000000006              _ZN6cudart24__unimpl_cuCtxSetCurrentEP8CUctx_st
000000000001bb10 l     F .text	0000000000000006              _ZN6cudart24__unimpl_cuCtxGetCurrentEPP8CUctx_st
000000000001bb20 l     F .text	0000000000000006              _ZN6cudart20__unimpl_cuCtxDetachEP8CUctx_st
000000000001bb30 l     F .text	0000000000000006              _ZN6cudart27__unimpl_cuCtxGetApiVersionEP8CUctx_stPj
000000000001bb40 l     F .text	0000000000000006              _ZN6cudart23__unimpl_cuCtxGetDeviceEPi
000000000001bb50 l     F .text	0000000000000006              _ZN6cudart22__unimpl_cuCtxGetLimitEPm12CUlimit_enum
000000000001bb60 l     F .text	0000000000000006              _ZN6cudart22__unimpl_cuCtxSetLimitE12CUlimit_enumm
000000000001bb70 l     F .text	0000000000000006              _ZN6cudart28__unimpl_cuCtxGetCacheConfigEP17CUfunc_cache_enum
000000000001bb80 l     F .text	0000000000000006              _ZN6cudart28__unimpl_cuCtxSetCacheConfigE17CUfunc_cache_enum
000000000001bb90 l     F .text	0000000000000006              _ZN6cudart32__unimpl_cuCtxGetSharedMemConfigEP19CUsharedconfig_enum
000000000001bba0 l     F .text	0000000000000006              _ZN6cudart36__unimpl_cuCtxGetStreamPriorityRangeEPiS0_
000000000001bbb0 l     F .text	0000000000000006              _ZN6cudart32__unimpl_cuCtxSetSharedMemConfigE19CUsharedconfig_enum
000000000001bbc0 l     F .text	0000000000000006              _ZN6cudart25__unimpl_cuCtxSynchronizeEv
000000000001bbd0 l     F .text	0000000000000006              _ZN6cudart21__unimpl_cuModuleLoadEPP8CUmod_stPKc
000000000001bbe0 l     F .text	0000000000000006              _ZN6cudart25__unimpl_cuModuleLoadDataEPP8CUmod_stPKv
000000000001bbf0 l     F .text	0000000000000006              _ZN6cudart30__unimpl_cuModuleLoadFatBinaryEPP8CUmod_stPKv
000000000001bc00 l     F .text	0000000000000006              _ZN6cudart23__unimpl_cuModuleUnloadEP8CUmod_st
000000000001bc10 l     F .text	0000000000000006              _ZN6cudart28__unimpl_cuModuleGetFunctionEPP9CUfunc_stP8CUmod_stPKc
000000000001bc20 l     F .text	0000000000000006              _ZN6cudart29__unimpl_cuModuleGetGlobal_v2EPyPmP8CUmod_stPKc
000000000001bc30 l     F .text	0000000000000006              _ZN6cudart26__unimpl_cuModuleGetTexRefEPP11CUtexref_stP8CUmod_stPKc
000000000001bc40 l     F .text	0000000000000006              _ZN6cudart27__unimpl_cuModuleGetSurfRefEPP12CUsurfref_stP8CUmod_stPKc
000000000001bc50 l     F .text	0000000000000006              _ZN6cudart21__unimpl_cuLinkCreateEjP17CUjit_option_enumPPvPP14CUlinkState_st
000000000001bc60 l     F .text	0000000000000006              _ZN6cudart22__unimpl_cuLinkAddDataEP14CUlinkState_st19CUjitInputType_enumPvmPKcjP17CUjit_option_enumPS3_
000000000001bc70 l     F .text	0000000000000006              _ZN6cudart22__unimpl_cuLinkAddFileEP14CUlinkState_st19CUjitInputType_enumPKcjP17CUjit_option_enumPPv
000000000001bc80 l     F .text	0000000000000006              _ZN6cudart23__unimpl_cuLinkCompleteEP14CUlinkState_stPPvPm
000000000001bc90 l     F .text	0000000000000006              _ZN6cudart22__unimpl_cuLinkDestroyEP14CUlinkState_st
000000000001bca0 l     F .text	0000000000000006              _ZN6cudart24__unimpl_cuMemGetInfo_v2EPmS0_
000000000001bcb0 l     F .text	0000000000000006              _ZN6cudart26__unimpl_cuMemAllocManagedEPymj
000000000001bcc0 l     F .text	0000000000000006              _ZN6cudart22__unimpl_cuMemAlloc_v2EPym
000000000001bcd0 l     F .text	0000000000000006              _ZN6cudart27__unimpl_cuMemAllocPitch_v2EPyPmmmj
000000000001bce0 l     F .text	0000000000000006              _ZN6cudart21__unimpl_cuMemFree_v2Ey
000000000001bcf0 l     F .text	0000000000000006              _ZN6cudart32__unimpl_cuMemGetAddressRange_v2EPyPmy
000000000001bd00 l     F .text	0000000000000006              _ZN6cudart22__unimpl_cuMemFreeHostEPv
000000000001bd10 l     F .text	0000000000000006              _ZN6cudart23__unimpl_cuMemHostAllocEPPvmj
000000000001bd20 l     F .text	0000000000000006              _ZN6cudart37__unimpl_cuMemHostGetDevicePointer_v2EPyPvj
000000000001bd30 l     F .text	0000000000000006              _ZN6cudart26__unimpl_cuMemHostGetFlagsEPjPv
000000000001bd40 l     F .text	0000000000000006              _ZN6cudart29__unimpl_cuMemHostRegister_v2EPvmj
000000000001bd50 l     F .text	0000000000000006              _ZN6cudart28__unimpl_cuMemHostUnregisterEPv
000000000001bd60 l     F .text	0000000000000006              _ZN6cudart30__unimpl_cuPointerGetAttributeEPvjy
000000000001bd70 l     F .text	0000000000000006              _ZN6cudart31__unimpl_cuPointerGetAttributesEjP24CUpointer_attribute_enumPPvy
000000000001bd80 l     F .text	0000000000000006              _ZN6cudart17__unimpl_cuMemcpyEyym
000000000001bd90 l     F .text	0000000000000006              _ZN6cudart22__unimpl_cuMemcpy_ptdsEyym
000000000001bda0 l     F .text	0000000000000006              _ZN6cudart22__unimpl_cuMemcpyAsyncEyymP11CUstream_st
000000000001bdb0 l     F .text	0000000000000006              _ZN6cudart27__unimpl_cuMemcpyAsync_ptszEyymP11CUstream_st
000000000001bdc0 l     F .text	0000000000000006              _ZN6cudart21__unimpl_cuMemcpyPeerEyP8CUctx_styS1_m
000000000001bdd0 l     F .text	0000000000000006              _ZN6cudart26__unimpl_cuMemcpyPeer_ptdsEyP8CUctx_styS1_m
000000000001bde0 l     F .text	0000000000000006              _ZN6cudart26__unimpl_cuMemcpyPeerAsyncEyP8CUctx_styS1_mP11CUstream_st
000000000001bdf0 l     F .text	0000000000000006              _ZN6cudart31__unimpl_cuMemcpyPeerAsync_ptszEyP8CUctx_styS1_mP11CUstream_st
000000000001be00 l     F .text	0000000000000006              _ZN6cudart24__unimpl_cuMemcpyHtoD_v2EyPKvm
000000000001be10 l     F .text	0000000000000006              _ZN6cudart29__unimpl_cuMemcpyHtoD_v2_ptdsEyPKvm
000000000001be20 l     F .text	0000000000000006              _ZN6cudart29__unimpl_cuMemcpyHtoDAsync_v2EyPKvmP11CUstream_st
000000000001be30 l     F .text	0000000000000006              _ZN6cudart34__unimpl_cuMemcpyHtoDAsync_v2_ptszEyPKvmP11CUstream_st
000000000001be40 l     F .text	0000000000000006              _ZN6cudart24__unimpl_cuMemcpyDtoH_v2EPvym
000000000001be50 l     F .text	0000000000000006              _ZN6cudart29__unimpl_cuMemcpyDtoH_v2_ptdsEPvym
000000000001be60 l     F .text	0000000000000006              _ZN6cudart29__unimpl_cuMemcpyDtoHAsync_v2EPvymP11CUstream_st
000000000001be70 l     F .text	0000000000000006              _ZN6cudart34__unimpl_cuMemcpyDtoHAsync_v2_ptszEPvymP11CUstream_st
000000000001be80 l     F .text	0000000000000006              _ZN6cudart24__unimpl_cuMemcpyDtoD_v2Eyym
000000000001be90 l     F .text	0000000000000006              _ZN6cudart29__unimpl_cuMemcpyDtoD_v2_ptdsEyym
000000000001bea0 l     F .text	0000000000000006              _ZN6cudart29__unimpl_cuMemcpyDtoDAsync_v2EyymP11CUstream_st
000000000001beb0 l     F .text	0000000000000006              _ZN6cudart34__unimpl_cuMemcpyDtoDAsync_v2_ptszEyymP11CUstream_st
000000000001bec0 l     F .text	0000000000000006              _ZN6cudart31__unimpl_cuMemcpy2DUnaligned_v2EPK16CUDA_MEMCPY2D_st
000000000001bed0 l     F .text	0000000000000006              _ZN6cudart36__unimpl_cuMemcpy2DUnaligned_v2_ptdsEPK16CUDA_MEMCPY2D_st
000000000001bee0 l     F .text	0000000000000006              _ZN6cudart27__unimpl_cuMemcpy2DAsync_v2EPK16CUDA_MEMCPY2D_stP11CUstream_st
000000000001bef0 l     F .text	0000000000000006              _ZN6cudart32__unimpl_cuMemcpy2DAsync_v2_ptszEPK16CUDA_MEMCPY2D_stP11CUstream_st
000000000001bf00 l     F .text	0000000000000006              _ZN6cudart22__unimpl_cuMemcpy3D_v2EPK16CUDA_MEMCPY3D_st
000000000001bf10 l     F .text	0000000000000006              _ZN6cudart27__unimpl_cuMemcpy3D_v2_ptdsEPK16CUDA_MEMCPY3D_st
000000000001bf20 l     F .text	0000000000000006              _ZN6cudart27__unimpl_cuMemcpy3DAsync_v2EPK16CUDA_MEMCPY3D_stP11CUstream_st
000000000001bf30 l     F .text	0000000000000006              _ZN6cudart32__unimpl_cuMemcpy3DAsync_v2_ptszEPK16CUDA_MEMCPY3D_stP11CUstream_st
000000000001bf40 l     F .text	0000000000000006              _ZN6cudart23__unimpl_cuMemcpy3DPeerEPK21CUDA_MEMCPY3D_PEER_st
000000000001bf50 l     F .text	0000000000000006              _ZN6cudart28__unimpl_cuMemcpy3DPeer_ptdsEPK21CUDA_MEMCPY3D_PEER_st
000000000001bf60 l     F .text	0000000000000006              _ZN6cudart28__unimpl_cuMemcpy3DPeerAsyncEPK21CUDA_MEMCPY3D_PEER_stP11CUstream_st
000000000001bf70 l     F .text	0000000000000006              _ZN6cudart33__unimpl_cuMemcpy3DPeerAsync_ptszEPK21CUDA_MEMCPY3D_PEER_stP11CUstream_st
000000000001bf80 l     F .text	0000000000000006              _ZN6cudart22__unimpl_cuMemsetD8_v2Eyhm
000000000001bf90 l     F .text	0000000000000006              _ZN6cudart27__unimpl_cuMemsetD8_v2_ptdsEyhm
000000000001bfa0 l     F .text	0000000000000006              _ZN6cudart24__unimpl_cuMemsetD8AsyncEyhmP11CUstream_st
000000000001bfb0 l     F .text	0000000000000006              _ZN6cudart29__unimpl_cuMemsetD8Async_ptszEyhmP11CUstream_st
000000000001bfc0 l     F .text	0000000000000006              _ZN6cudart24__unimpl_cuMemsetD2D8_v2Eymhmm
000000000001bfd0 l     F .text	0000000000000006              _ZN6cudart29__unimpl_cuMemsetD2D8_v2_ptdsEymhmm
000000000001bfe0 l     F .text	0000000000000006              _ZN6cudart26__unimpl_cuMemsetD2D8AsyncEymhmmP11CUstream_st
000000000001bff0 l     F .text	0000000000000006              _ZN6cudart31__unimpl_cuMemsetD2D8Async_ptszEymhmmP11CUstream_st
000000000001c000 l     F .text	0000000000000006              _ZN6cudart29__unimpl_cuFuncSetCacheConfigEP9CUfunc_st17CUfunc_cache_enum
000000000001c010 l     F .text	0000000000000006              _ZN6cudart33__unimpl_cuFuncSetSharedMemConfigEP9CUfunc_st19CUsharedconfig_enum
000000000001c020 l     F .text	0000000000000006              _ZN6cudart27__unimpl_cuFuncGetAttributeEPi25CUfunction_attribute_enumP9CUfunc_st
000000000001c030 l     F .text	0000000000000006              _ZN6cudart27__unimpl_cuFuncSetAttributeEP9CUfunc_st25CUfunction_attribute_enumi
000000000001c040 l     F .text	0000000000000006              _ZN6cudart25__unimpl_cuArrayCreate_v2EPP10CUarray_stPK24CUDA_ARRAY_DESCRIPTOR_st
000000000001c050 l     F .text	0000000000000006              _ZN6cudart32__unimpl_cuArrayGetDescriptor_v2EP24CUDA_ARRAY_DESCRIPTOR_stP10CUarray_st
000000000001c060 l     F .text	0000000000000006              _ZN6cudart27__unimpl_cuArray3DCreate_v2EPP10CUarray_stPK26CUDA_ARRAY3D_DESCRIPTOR_st
000000000001c070 l     F .text	0000000000000006              _ZN6cudart34__unimpl_cuArray3DGetDescriptor_v2EP26CUDA_ARRAY3D_DESCRIPTOR_stP10CUarray_st
000000000001c080 l     F .text	0000000000000006              _ZN6cudart23__unimpl_cuArrayDestroyEP10CUarray_st
000000000001c090 l     F .text	0000000000000006              _ZN6cudart31__unimpl_cuMipmappedArrayCreateEPP19CUmipmappedArray_stPK26CUDA_ARRAY3D_DESCRIPTOR_stj
000000000001c0a0 l     F .text	0000000000000006              _ZN6cudart33__unimpl_cuMipmappedArrayGetLevelEPP10CUarray_stP19CUmipmappedArray_stj
000000000001c0b0 l     F .text	0000000000000006              _ZN6cudart32__unimpl_cuMipmappedArrayDestroyEP19CUmipmappedArray_st
000000000001c0c0 l     F .text	0000000000000006              _ZN6cudart23__unimpl_cuTexRefCreateEPP11CUtexref_st
000000000001c0d0 l     F .text	0000000000000006              _ZN6cudart24__unimpl_cuTexRefDestroyEP11CUtexref_st
000000000001c0e0 l     F .text	0000000000000006              _ZN6cudart25__unimpl_cuTexRefSetArrayEP11CUtexref_stP10CUarray_stj
000000000001c0f0 l     F .text	0000000000000006              _ZN6cudart34__unimpl_cuTexRefSetMipmappedArrayEP11CUtexref_stP19CUmipmappedArray_stj
000000000001c100 l     F .text	0000000000000006              _ZN6cudart30__unimpl_cuTexRefSetAddress_v2EPmP11CUtexref_stym
000000000001c110 l     F .text	0000000000000006              _ZN6cudart32__unimpl_cuTexRefSetAddress2D_v3EP11CUtexref_stPK24CUDA_ARRAY_DESCRIPTOR_stym
000000000001c120 l     F .text	0000000000000006              _ZN6cudart26__unimpl_cuTexRefSetFormatEP11CUtexref_st19CUarray_format_enumi
000000000001c130 l     F .text	0000000000000006              _ZN6cudart31__unimpl_cuTexRefSetAddressModeEP11CUtexref_sti19CUaddress_mode_enum
000000000001c140 l     F .text	0000000000000006              _ZN6cudart30__unimpl_cuTexRefSetFilterModeEP11CUtexref_st18CUfilter_mode_enum
000000000001c150 l     F .text	0000000000000006              _ZN6cudart36__unimpl_cuTexRefSetMipmapFilterModeEP11CUtexref_st18CUfilter_mode_enum
000000000001c160 l     F .text	0000000000000006              _ZN6cudart35__unimpl_cuTexRefSetMipmapLevelBiasEP11CUtexref_stf
000000000001c170 l     F .text	0000000000000006              _ZN6cudart36__unimpl_cuTexRefSetMipmapLevelClampEP11CUtexref_stff
000000000001c180 l     F .text	0000000000000006              _ZN6cudart33__unimpl_cuTexRefSetMaxAnisotropyEP11CUtexref_stj
000000000001c190 l     F .text	0000000000000006              _ZN6cudart25__unimpl_cuTexRefSetFlagsEP11CUtexref_stj
000000000001c1a0 l     F .text	0000000000000006              _ZN6cudart31__unimpl_cuTexRefSetBorderColorEP11CUtexref_stPf
000000000001c1b0 l     F .text	0000000000000006              _ZN6cudart31__unimpl_cuTexRefGetBorderColorEPfP11CUtexref_st
000000000001c1c0 l     F .text	0000000000000006              _ZN6cudart26__unimpl_cuSurfRefSetArrayEP12CUsurfref_stP10CUarray_stj
000000000001c1d0 l     F .text	0000000000000006              _ZN6cudart26__unimpl_cuTexObjectCreateEPyPK21CUDA_RESOURCE_DESC_stPK20CUDA_TEXTURE_DESC_stPK26CUDA_RESOURCE_VIEW_DESC_st
000000000001c1e0 l     F .text	0000000000000006              _ZN6cudart27__unimpl_cuTexObjectDestroyEy
000000000001c1f0 l     F .text	0000000000000006              _ZN6cudart35__unimpl_cuTexObjectGetResourceDescEP21CUDA_RESOURCE_DESC_sty
000000000001c200 l     F .text	0000000000000006              _ZN6cudart34__unimpl_cuTexObjectGetTextureDescEP20CUDA_TEXTURE_DESC_sty
000000000001c210 l     F .text	0000000000000006              _ZN6cudart39__unimpl_cuTexObjectGetResourceViewDescEP26CUDA_RESOURCE_VIEW_DESC_sty
000000000001c220 l     F .text	0000000000000006              _ZN6cudart27__unimpl_cuSurfObjectCreateEPyPK21CUDA_RESOURCE_DESC_st
000000000001c230 l     F .text	0000000000000006              _ZN6cudart28__unimpl_cuSurfObjectDestroyEy
000000000001c240 l     F .text	0000000000000006              _ZN6cudart36__unimpl_cuSurfObjectGetResourceDescEP21CUDA_RESOURCE_DESC_sty
000000000001c250 l     F .text	0000000000000006              _ZN6cudart31__unimpl_cuImportExternalMemoryEPP14CUextMemory_stPK35CUDA_EXTERNAL_MEMORY_HANDLE_DESC_st
000000000001c260 l     F .text	0000000000000006              _ZN6cudart40__unimpl_cuExternalMemoryGetMappedBufferEPyP14CUextMemory_stPK35CUDA_EXTERNAL_MEMORY_BUFFER_DESC_st
000000000001c270 l     F .text	0000000000000006              _ZN6cudart48__unimpl_cuExternalMemoryGetMappedMipmappedArrayEPP19CUmipmappedArray_stP14CUextMemory_stPK44CUDA_EXTERNAL_MEMORY_MIPMAPPED_ARRAY_DESC_st
000000000001c280 l     F .text	0000000000000006              _ZN6cudart32__unimpl_cuDestroyExternalMemoryEP14CUextMemory_st
000000000001c290 l     F .text	0000000000000006              _ZN6cudart34__unimpl_cuImportExternalSemaphoreEPP17CUextSemaphore_stPK38CUDA_EXTERNAL_SEMAPHORE_HANDLE_DESC_st
000000000001c2a0 l     F .text	0000000000000006              _ZN6cudart40__unimpl_cuSignalExternalSemaphoresAsyncEPKP17CUextSemaphore_stPK40CUDA_EXTERNAL_SEMAPHORE_SIGNAL_PARAMS_stjP11CUstream_st
000000000001c2b0 l     F .text	0000000000000006              _ZN6cudart45__unimpl_cuSignalExternalSemaphoresAsync_ptszEPKP17CUextSemaphore_stPK40CUDA_EXTERNAL_SEMAPHORE_SIGNAL_PARAMS_stjP11CUstream_st
000000000001c2c0 l     F .text	0000000000000006              _ZN6cudart38__unimpl_cuWaitExternalSemaphoresAsyncEPKP17CUextSemaphore_stPK38CUDA_EXTERNAL_SEMAPHORE_WAIT_PARAMS_stjP11CUstream_st
000000000001c2d0 l     F .text	0000000000000006              _ZN6cudart43__unimpl_cuWaitExternalSemaphoresAsync_ptszEPKP17CUextSemaphore_stPK38CUDA_EXTERNAL_SEMAPHORE_WAIT_PARAMS_stjP11CUstream_st
000000000001c2e0 l     F .text	0000000000000006              _ZN6cudart35__unimpl_cuDestroyExternalSemaphoreEP17CUextSemaphore_st
000000000001c2f0 l     F .text	0000000000000006              _ZN6cudart23__unimpl_cuLaunchKernelEP9CUfunc_stjjjjjjjP11CUstream_stPPvS5_
000000000001c300 l     F .text	0000000000000006              _ZN6cudart28__unimpl_cuLaunchKernel_ptszEP9CUfunc_stjjjjjjjP11CUstream_stPPvS5_
000000000001c310 l     F .text	0000000000000006              _ZN6cudart34__unimpl_cuLaunchCooperativeKernelEP9CUfunc_stjjjjjjjP11CUstream_stPPv
000000000001c320 l     F .text	0000000000000006              _ZN6cudart39__unimpl_cuLaunchCooperativeKernel_ptszEP9CUfunc_stjjjjjjjP11CUstream_stPPv
000000000001c330 l     F .text	0000000000000006              _ZN6cudart45__unimpl_cuLaunchCooperativeKernelMultiDeviceEP21CUDA_LAUNCH_PARAMS_stjj
000000000001c340 l     F .text	0000000000000006              _ZN6cudart25__unimpl_cuLaunchHostFuncEP11CUstream_stPFvPvES2_
000000000001c350 l     F .text	0000000000000006              _ZN6cudart30__unimpl_cuLaunchHostFunc_ptszEP11CUstream_stPFvPvES2_
000000000001c360 l     F .text	0000000000000006              _ZN6cudart22__unimpl_cuEventCreateEPP10CUevent_stj
000000000001c370 l     F .text	0000000000000006              _ZN6cudart22__unimpl_cuEventRecordEP10CUevent_stP11CUstream_st
000000000001c380 l     F .text	0000000000000006              _ZN6cudart27__unimpl_cuEventRecord_ptszEP10CUevent_stP11CUstream_st
000000000001c390 l     F .text	0000000000000006              _ZN6cudart21__unimpl_cuEventQueryEP10CUevent_st
000000000001c3a0 l     F .text	0000000000000006              _ZN6cudart27__unimpl_cuEventSynchronizeEP10CUevent_st
000000000001c3b0 l     F .text	0000000000000006              _ZN6cudart26__unimpl_cuEventDestroy_v2EP10CUevent_st
000000000001c3c0 l     F .text	0000000000000006              _ZN6cudart27__unimpl_cuEventElapsedTimeEPfP10CUevent_stS2_
000000000001c3d0 l     F .text	0000000000000006              _ZN6cudart28__unimpl_cuStreamWaitValue32EP11CUstream_styjj
000000000001c3e0 l     F .text	0000000000000006              _ZN6cudart33__unimpl_cuStreamWaitValue32_ptszEP11CUstream_styjj
000000000001c3f0 l     F .text	0000000000000006              _ZN6cudart29__unimpl_cuStreamWriteValue32EP11CUstream_styjj
000000000001c400 l     F .text	0000000000000006              _ZN6cudart34__unimpl_cuStreamWriteValue32_ptszEP11CUstream_styjj
000000000001c410 l     F .text	0000000000000006              _ZN6cudart28__unimpl_cuStreamWaitValue64EP11CUstream_stymj
000000000001c420 l     F .text	0000000000000006              _ZN6cudart33__unimpl_cuStreamWaitValue64_ptszEP11CUstream_stymj
000000000001c430 l     F .text	0000000000000006              _ZN6cudart29__unimpl_cuStreamWriteValue64EP11CUstream_stymj
000000000001c440 l     F .text	0000000000000006              _ZN6cudart34__unimpl_cuStreamWriteValue64_ptszEP11CUstream_stymj
000000000001c450 l     F .text	0000000000000006              _ZN6cudart27__unimpl_cuStreamBatchMemOpEP11CUstream_stjP30CUstreamBatchMemOpParams_unionj
000000000001c460 l     F .text	0000000000000006              _ZN6cudart32__unimpl_cuStreamBatchMemOp_ptszEP11CUstream_stjP30CUstreamBatchMemOpParams_unionj
000000000001c470 l     F .text	0000000000000006              _ZN6cudart23__unimpl_cuStreamCreateEPP11CUstream_stj
000000000001c480 l     F .text	0000000000000006              _ZN6cudart35__unimpl_cuStreamCreateWithPriorityEPP11CUstream_stji
000000000001c490 l     F .text	0000000000000006              _ZN6cudart28__unimpl_cuStreamGetPriorityEP11CUstream_stPi
000000000001c4a0 l     F .text	0000000000000006              _ZN6cudart33__unimpl_cuStreamGetPriority_ptszEP11CUstream_stPi
000000000001c4b0 l     F .text	0000000000000006              _ZN6cudart25__unimpl_cuStreamGetFlagsEP11CUstream_stPj
000000000001c4c0 l     F .text	0000000000000006              _ZN6cudart23__unimpl_cuStreamGetCtxEP11CUstream_stPP8CUctx_st
000000000001c4d0 l     F .text	0000000000000006              _ZN6cudart30__unimpl_cuStreamGetFlags_ptszEP11CUstream_stPj
000000000001c4e0 l     F .text	0000000000000006              _ZN6cudart27__unimpl_cuStreamDestroy_v2EP11CUstream_st
000000000001c4f0 l     F .text	0000000000000006              _ZN6cudart26__unimpl_cuStreamWaitEventEP11CUstream_stP10CUevent_stj
000000000001c500 l     F .text	0000000000000006              _ZN6cudart31__unimpl_cuStreamWaitEvent_ptszEP11CUstream_stP10CUevent_stj
000000000001c510 l     F .text	0000000000000006              _ZN6cudart28__unimpl_cuStreamAddCallbackEP11CUstream_stPFvS1_14cudaError_enumPvES3_j
000000000001c520 l     F .text	0000000000000006              _ZN6cudart33__unimpl_cuStreamAddCallback_ptszEP11CUstream_stPFvS1_14cudaError_enumPvES3_j
000000000001c530 l     F .text	0000000000000006              _ZN6cudart28__unimpl_cuStreamSynchronizeEP11CUstream_st
000000000001c540 l     F .text	0000000000000006              _ZN6cudart33__unimpl_cuStreamSynchronize_ptszEP11CUstream_st
000000000001c550 l     F .text	0000000000000006              _ZN6cudart22__unimpl_cuStreamQueryEP11CUstream_st
000000000001c560 l     F .text	0000000000000006              _ZN6cudart27__unimpl_cuStreamQuery_ptszEP11CUstream_st
000000000001c570 l     F .text	0000000000000006              _ZN6cudart31__unimpl_cuStreamAttachMemAsyncEP11CUstream_stymj
000000000001c580 l     F .text	0000000000000006              _ZN6cudart36__unimpl_cuStreamAttachMemAsync_ptszEP11CUstream_stymj
000000000001c590 l     F .text	0000000000000006              _ZN6cudart30__unimpl_cuDeviceCanAccessPeerEPiii
000000000001c5a0 l     F .text	0000000000000006              _ZN6cudart30__unimpl_cuCtxEnablePeerAccessEP8CUctx_stj
000000000001c5b0 l     F .text	0000000000000006              _ZN6cudart31__unimpl_cuCtxDisablePeerAccessEP8CUctx_st
000000000001c5c0 l     F .text	0000000000000006              _ZN6cudart28__unimpl_cuIpcGetEventHandleEP19CUipcEventHandle_stP10CUevent_st
000000000001c5d0 l     F .text	0000000000000006              _ZN6cudart29__unimpl_cuIpcOpenEventHandleEPP10CUevent_st19CUipcEventHandle_st
000000000001c5e0 l     F .text	0000000000000006              _ZN6cudart26__unimpl_cuIpcGetMemHandleEP17CUipcMemHandle_sty
000000000001c5f0 l     F .text	0000000000000006              _ZN6cudart27__unimpl_cuIpcOpenMemHandleEPy17CUipcMemHandle_stj
000000000001c600 l     F .text	0000000000000006              _ZN6cudart28__unimpl_cuIpcCloseMemHandleEy
000000000001c610 l     F .text	0000000000000006              _ZN6cudart25__unimpl_cuGLCtxCreate_v2EPP8CUctx_stji
000000000001c620 l     F .text	0000000000000006              _ZN6cudart17__unimpl_cuGLInitEv
000000000001c630 l     F .text	0000000000000006              _ZN6cudart23__unimpl_cuGLGetDevicesEPjPij19CUGLDeviceList_enum
000000000001c640 l     F .text	0000000000000006              _ZN6cudart33__unimpl_cuGLRegisterBufferObjectEj
000000000001c650 l     F .text	0000000000000006              _ZN6cudart31__unimpl_cuGLMapBufferObject_v2EPyPmj
000000000001c660 l     F .text	0000000000000006              _ZN6cudart36__unimpl_cuGLMapBufferObject_v2_ptdsEPyPmj
000000000001c670 l     F .text	0000000000000006              _ZN6cudart36__unimpl_cuGLMapBufferObjectAsync_v2EPyPmjP11CUstream_st
000000000001c680 l     F .text	0000000000000006              _ZN6cudart41__unimpl_cuGLMapBufferObjectAsync_v2_ptszEPyPmjP11CUstream_st
000000000001c690 l     F .text	0000000000000006              _ZN6cudart30__unimpl_cuGLUnmapBufferObjectEj
000000000001c6a0 l     F .text	0000000000000006              _ZN6cudart35__unimpl_cuGLUnmapBufferObjectAsyncEjP11CUstream_st
000000000001c6b0 l     F .text	0000000000000006              _ZN6cudart35__unimpl_cuGLUnregisterBufferObjectEj
000000000001c6c0 l     F .text	0000000000000006              _ZN6cudart36__unimpl_cuGLSetBufferObjectMapFlagsEjj
000000000001c6d0 l     F .text	0000000000000006              _ZN6cudart34__unimpl_cuGraphicsGLRegisterImageEPP21CUgraphicsResource_stjjj
000000000001c6e0 l     F .text	0000000000000006              _ZN6cudart35__unimpl_cuGraphicsGLRegisterBufferEPP21CUgraphicsResource_stjj
000000000001c6f0 l     F .text	0000000000000006              _ZN6cudart35__unimpl_cuGraphicsEGLRegisterImageEPP21CUgraphicsResource_stPvj
000000000001c700 l     F .text	0000000000000006              _ZN6cudart35__unimpl_cuEGLStreamConsumerConnectEPP24CUeglStreamConnection_stPv
000000000001c710 l     F .text	0000000000000006              _ZN6cudart38__unimpl_cuEGLStreamConsumerDisconnectEPP24CUeglStreamConnection_st
000000000001c720 l     F .text	0000000000000006              _ZN6cudart40__unimpl_cuEGLStreamConsumerAcquireFrameEPP24CUeglStreamConnection_stPP21CUgraphicsResource_stPP11CUstream_stj
000000000001c730 l     F .text	0000000000000006              _ZN6cudart40__unimpl_cuEGLStreamConsumerReleaseFrameEPP24CUeglStreamConnection_stP21CUgraphicsResource_stPP11CUstream_st
000000000001c740 l     F .text	0000000000000006              _ZN6cudart35__unimpl_cuEGLStreamProducerConnectEPP24CUeglStreamConnection_stPvii
000000000001c750 l     F .text	0000000000000006              _ZN6cudart38__unimpl_cuEGLStreamProducerDisconnectEPP24CUeglStreamConnection_st
000000000001c760 l     F .text	0000000000000006              _ZN6cudart40__unimpl_cuEGLStreamProducerPresentFrameEPP24CUeglStreamConnection_st13CUeglFrame_stPP11CUstream_st
000000000001c770 l     F .text	0000000000000006              _ZN6cudart39__unimpl_cuEGLStreamProducerReturnFrameEPP24CUeglStreamConnection_stP13CUeglFrame_stPP11CUstream_st
000000000001c780 l     F .text	0000000000000006              _ZN6cudart44__unimpl_cuGraphicsResourceGetMappedEglFrameEP13CUeglFrame_stP21CUgraphicsResource_stjj
000000000001c790 l     F .text	0000000000000006              _ZN6cudart44__unimpl_cuEGLStreamConsumerConnectWithFlagsEPP24CUeglStreamConnection_stPvj
000000000001c7a0 l     F .text	0000000000000006              _ZN6cudart37__unimpl_cuGraphicsUnregisterResourceEP21CUgraphicsResource_st
000000000001c7b0 l     F .text	0000000000000006              _ZN6cudart31__unimpl_cuGraphicsMapResourcesEjPP21CUgraphicsResource_stP11CUstream_st
000000000001c7c0 l     F .text	0000000000000006              _ZN6cudart36__unimpl_cuGraphicsMapResources_ptszEjPP21CUgraphicsResource_stP11CUstream_st
000000000001c7d0 l     F .text	0000000000000006              _ZN6cudart33__unimpl_cuGraphicsUnmapResourcesEjPP21CUgraphicsResource_stP11CUstream_st
000000000001c7e0 l     F .text	0000000000000006              _ZN6cudart38__unimpl_cuGraphicsUnmapResources_ptszEjPP21CUgraphicsResource_stP11CUstream_st
000000000001c7f0 l     F .text	0000000000000006              _ZN6cudart41__unimpl_cuGraphicsResourceSetMapFlags_v2EP21CUgraphicsResource_stj
000000000001c800 l     F .text	0000000000000006              _ZN6cudart44__unimpl_cuGraphicsSubResourceGetMappedArrayEPP10CUarray_stP21CUgraphicsResource_stjj
000000000001c810 l     F .text	0000000000000006              _ZN6cudart50__unimpl_cuGraphicsResourceGetMappedMipmappedArrayEPP19CUmipmappedArray_stP21CUgraphicsResource_st
000000000001c820 l     F .text	0000000000000006              _ZN6cudart46__unimpl_cuGraphicsResourceGetMappedPointer_v2EPyPmP21CUgraphicsResource_st
000000000001c830 l     F .text	0000000000000006              _ZN6cudart29__unimpl_cuProfilerInitializeEPKcS1_i
000000000001c840 l     F .text	0000000000000006              _ZN6cudart24__unimpl_cuProfilerStartEv
000000000001c850 l     F .text	0000000000000006              _ZN6cudart23__unimpl_cuProfilerStopEv
000000000001c860 l     F .text	0000000000000006              _ZN6cudart25__unimpl_cuVDPAUGetDeviceEPijPF9VdpStatusjjPPvE
000000000001c870 l     F .text	0000000000000006              _ZN6cudart28__unimpl_cuVDPAUCtxCreate_v2EPP8CUctx_stjijPF9VdpStatusjjPPvE
000000000001c880 l     F .text	0000000000000006              _ZN6cudart44__unimpl_cuGraphicsVDPAURegisterVideoSurfaceEPP21CUgraphicsResource_stjj
000000000001c890 l     F .text	0000000000000006              _ZN6cudart45__unimpl_cuGraphicsVDPAURegisterOutputSurfaceEPP21CUgraphicsResource_stjj
000000000001c8a0 l     F .text	0000000000000006              _ZN6cudart25__unimpl_cuGetExportTableEPPKvPK9CUuuid_st
000000000001c8b0 l     F .text	0000000000000006              _ZN6cudart61__unimpl_cuOccupancyMaxActiveBlocksPerMultiprocessorWithFlagsEPiP9CUfunc_stimj
000000000001c8c0 l     F .text	0000000000000006              _ZN6cudart20__unimpl_cuMemAdviseEym17CUmem_advise_enumi
000000000001c8d0 l     F .text	0000000000000006              _ZN6cudart27__unimpl_cuMemPrefetchAsyncEymiP11CUstream_st
000000000001c8e0 l     F .text	0000000000000006              _ZN6cudart32__unimpl_cuMemPrefetchAsync_ptszEymiP11CUstream_st
000000000001c8f0 l     F .text	0000000000000006              _ZN6cudart31__unimpl_cuMemRangeGetAttributeEPvm26CUmem_range_attribute_enumym
000000000001c900 l     F .text	0000000000000006              _ZN6cudart32__unimpl_cuMemRangeGetAttributesEPPvPmP26CUmem_range_attribute_enummym
000000000001c910 l     F .text	0000000000000006              _ZN6cudart25__unimpl_cuGetErrorStringE14cudaError_enumPPKc
000000000001c920 l     F .text	0000000000000006              _ZN6cudart23__unimpl_cuGetErrorNameE14cudaError_enumPPKc
000000000001c930 l     F .text	0000000000000006              _ZN6cudart22__unimpl_cuGraphCreateEPP10CUgraph_stj
000000000001c940 l     F .text	0000000000000006              _ZN6cudart29__unimpl_cuGraphAddKernelNodeEPP14CUgraphNode_stP10CUgraph_stPKS1_mPK26CUDA_KERNEL_NODE_PARAMS_st
000000000001c950 l     F .text	0000000000000006              _ZN6cudart35__unimpl_cuGraphKernelNodeGetParamsEP14CUgraphNode_stP26CUDA_KERNEL_NODE_PARAMS_st
000000000001c960 l     F .text	0000000000000006              _ZN6cudart35__unimpl_cuGraphKernelNodeSetParamsEP14CUgraphNode_stPK26CUDA_KERNEL_NODE_PARAMS_st
000000000001c970 l     F .text	0000000000000006              _ZN6cudart29__unimpl_cuGraphAddMemcpyNodeEPP14CUgraphNode_stP10CUgraph_stPKS1_mPK16CUDA_MEMCPY3D_stP8CUctx_st
000000000001c980 l     F .text	0000000000000006              _ZN6cudart35__unimpl_cuGraphMemcpyNodeGetParamsEP14CUgraphNode_stP16CUDA_MEMCPY3D_st
000000000001c990 l     F .text	0000000000000006              _ZN6cudart35__unimpl_cuGraphMemcpyNodeSetParamsEP14CUgraphNode_stPK16CUDA_MEMCPY3D_st
000000000001c9a0 l     F .text	0000000000000006              _ZN6cudart29__unimpl_cuGraphAddMemsetNodeEPP14CUgraphNode_stP10CUgraph_stPKS1_mPK26CUDA_MEMSET_NODE_PARAMS_stP8CUctx_st
000000000001c9b0 l     F .text	0000000000000006              _ZN6cudart35__unimpl_cuGraphMemsetNodeGetParamsEP14CUgraphNode_stP26CUDA_MEMSET_NODE_PARAMS_st
000000000001c9c0 l     F .text	0000000000000006              _ZN6cudart35__unimpl_cuGraphMemsetNodeSetParamsEP14CUgraphNode_stPK26CUDA_MEMSET_NODE_PARAMS_st
000000000001c9d0 l     F .text	0000000000000006              _ZN6cudart27__unimpl_cuGraphAddHostNodeEPP14CUgraphNode_stP10CUgraph_stPKS1_mPK24CUDA_HOST_NODE_PARAMS_st
000000000001c9e0 l     F .text	0000000000000006              _ZN6cudart33__unimpl_cuGraphHostNodeGetParamsEP14CUgraphNode_stP24CUDA_HOST_NODE_PARAMS_st
000000000001c9f0 l     F .text	0000000000000006              _ZN6cudart33__unimpl_cuGraphHostNodeSetParamsEP14CUgraphNode_stPK24CUDA_HOST_NODE_PARAMS_st
000000000001ca00 l     F .text	0000000000000006              _ZN6cudart33__unimpl_cuGraphAddChildGraphNodeEPP14CUgraphNode_stP10CUgraph_stPKS1_mS4_
000000000001ca10 l     F .text	0000000000000006              _ZN6cudart38__unimpl_cuGraphChildGraphNodeGetGraphEP14CUgraphNode_stPP10CUgraph_st
000000000001ca20 l     F .text	0000000000000006              _ZN6cudart28__unimpl_cuGraphAddEmptyNodeEPP14CUgraphNode_stP10CUgraph_stPKS1_m
000000000001ca30 l     F .text	0000000000000006              _ZN6cudart21__unimpl_cuGraphCloneEPP10CUgraph_stS1_
000000000001ca40 l     F .text	0000000000000006              _ZN6cudart31__unimpl_cuGraphNodeFindInCloneEPP14CUgraphNode_stS1_P10CUgraph_st
000000000001ca50 l     F .text	0000000000000006              _ZN6cudart27__unimpl_cuGraphNodeGetTypeEP14CUgraphNode_stP20CUgraphNodeType_enum
000000000001ca60 l     F .text	0000000000000006              _ZN6cudart24__unimpl_cuGraphGetNodesEP10CUgraph_stPP14CUgraphNode_stPm
000000000001ca70 l     F .text	0000000000000006              _ZN6cudart28__unimpl_cuGraphGetRootNodesEP10CUgraph_stPP14CUgraphNode_stPm
000000000001ca80 l     F .text	0000000000000006              _ZN6cudart24__unimpl_cuGraphGetEdgesEP10CUgraph_stPP14CUgraphNode_stS4_Pm
000000000001ca90 l     F .text	0000000000000006              _ZN6cudart35__unimpl_cuGraphNodeGetDependenciesEP14CUgraphNode_stPS1_Pm
000000000001caa0 l     F .text	0000000000000006              _ZN6cudart37__unimpl_cuGraphNodeGetDependentNodesEP14CUgraphNode_stPS1_Pm
000000000001cab0 l     F .text	0000000000000006              _ZN6cudart31__unimpl_cuGraphAddDependenciesEP10CUgraph_stPKP14CUgraphNode_stS5_m
000000000001cac0 l     F .text	0000000000000006              _ZN6cudart34__unimpl_cuGraphRemoveDependenciesEP10CUgraph_stPKP14CUgraphNode_stS5_m
000000000001cad0 l     F .text	0000000000000006              _ZN6cudart27__unimpl_cuGraphDestroyNodeEP14CUgraphNode_st
000000000001cae0 l     F .text	0000000000000006              _ZN6cudart27__unimpl_cuGraphInstantiateEPP14CUgraphExec_stP10CUgraph_stPP14CUgraphNode_stPcm
000000000001caf0 l     F .text	0000000000000006              _ZN6cudart22__unimpl_cuGraphLaunchEP14CUgraphExec_stP11CUstream_st
000000000001cb00 l     F .text	0000000000000006              _ZN6cudart27__unimpl_cuGraphLaunch_ptszEP14CUgraphExec_stP11CUstream_st
000000000001cb10 l     F .text	0000000000000006              _ZN6cudart27__unimpl_cuGraphExecDestroyEP14CUgraphExec_st
000000000001cb20 l     F .text	0000000000000006              _ZN6cudart23__unimpl_cuGraphDestroyEP10CUgraph_st
000000000001cb30 l     F .text	0000000000000006              _ZN6cudart29__unimpl_cuStreamBeginCaptureEP11CUstream_st
000000000001cb40 l     F .text	0000000000000006              _ZN6cudart34__unimpl_cuStreamBeginCapture_ptszEP11CUstream_st
000000000001cb50 l     F .text	0000000000000006              _ZN6cudart32__unimpl_cuStreamBeginCapture_v2EP11CUstream_st24CUstreamCaptureMode_enum
000000000001cb60 l     F .text	0000000000000006              _ZN6cudart37__unimpl_cuStreamBeginCapture_v2_ptszEP11CUstream_st24CUstreamCaptureMode_enum
000000000001cb70 l     F .text	0000000000000006              _ZN6cudart27__unimpl_cuStreamEndCaptureEP11CUstream_stPP10CUgraph_st
000000000001cb80 l     F .text	0000000000000006              _ZN6cudart32__unimpl_cuStreamEndCapture_ptszEP11CUstream_stPP10CUgraph_st
000000000001cb90 l     F .text	0000000000000006              _ZN6cudart28__unimpl_cuStreamIsCapturingEP11CUstream_stP26CUstreamCaptureStatus_enum
000000000001cba0 l     F .text	0000000000000006              _ZN6cudart33__unimpl_cuStreamIsCapturing_ptszEP11CUstream_stP26CUstreamCaptureStatus_enum
000000000001cbb0 l     F .text	0000000000000006              _ZN6cudart31__unimpl_cuStreamGetCaptureInfoEP11CUstream_stP26CUstreamCaptureStatus_enumPy
000000000001cbc0 l     F .text	0000000000000006              _ZN6cudart36__unimpl_cuStreamGetCaptureInfo_ptszEP11CUstream_stP26CUstreamCaptureStatus_enumPy
000000000001cbd0 l     F .text	0000000000000006              _ZN6cudart39__unimpl_cuGraphExecKernelNodeSetParamsEP14CUgraphExec_stP14CUgraphNode_stP26CUDA_KERNEL_NODE_PARAMS_st
000000000001cbe0 l     F .text	0000000000000006              _ZN6cudart42__unimpl_cuThreadExchangeStreamCaptureModeEP24CUstreamCaptureMode_enum
0000000000064000 l     O .rodata	00000000000002c8              dontCare.41276
000000000031bdc0 l     O .bss	0000000000000028              _ZN6cudart15criticalSectionE
0000000000022da0 l     F .text	000000000000009e              _ZN6cudart17createGlobalStateEv
000000000031bdb8 l     O .bss	0000000000000004              _ZN6cudart23createGobalStateControlE
000000000031bdb0 l     O .bss	0000000000000008              _ZN6cudart7globalsE
000000000031c6f0 l     O .bss	0000000000000004              _ZZN6cudart11globalState10loadDriverEvE17loadDriverControl
000000000031b040 l     O .data	0000000000000004              _ZN6cudart19globalStateRefCountE
000000000031bde8 l     O .bss	0000000000000008              _ZN6cudart15__funtmp_cuInitE
000000000031bdf0 l     O .bss	0000000000000008              _ZN6cudart20__funtmp_cuDeviceGetE
000000000031bdf8 l     O .bss	0000000000000008              _ZN6cudart25__funtmp_cuDeviceGetCountE
000000000031be00 l     O .bss	0000000000000008              _ZN6cudart24__funtmp_cuDeviceGetNameE
000000000031be08 l     O .bss	0000000000000008              _ZN6cudart28__funtmp_cuDeviceTotalMem_v2E
000000000031be10 l     O .bss	0000000000000008              _ZN6cudart29__funtmp_cuDeviceGetAttributeE
000000000031be18 l     O .bss	0000000000000008              _ZN6cudart32__funtmp_cuDeviceGetP2PAttributeE
000000000031be20 l     O .bss	0000000000000008              _ZN6cudart27__funtmp_cuDriverGetVersionE
000000000031be28 l     O .bss	0000000000000008              _ZN6cudart30__funtmp_cuDeviceGetByPCIBusIdE
000000000031be30 l     O .bss	0000000000000008              _ZN6cudart28__funtmp_cuDeviceGetPCIBusIdE
000000000031be38 l     O .bss	0000000000000008              _ZN6cudart24__funtmp_cuDeviceGetUuidE
000000000031be40 l     O .bss	0000000000000008              _ZN6cudart33__funtmp_cuDevicePrimaryCtxRetainE
000000000031be48 l     O .bss	0000000000000008              _ZN6cudart34__funtmp_cuDevicePrimaryCtxReleaseE
000000000031be50 l     O .bss	0000000000000008              _ZN6cudart35__funtmp_cuDevicePrimaryCtxSetFlagsE
000000000031be58 l     O .bss	0000000000000008              _ZN6cudart35__funtmp_cuDevicePrimaryCtxGetStateE
000000000031be60 l     O .bss	0000000000000008              _ZN6cudart32__funtmp_cuDevicePrimaryCtxResetE
000000000031be68 l     O .bss	0000000000000008              _ZN6cudart23__funtmp_cuCtxCreate_v2E
000000000031be70 l     O .bss	0000000000000008              _ZN6cudart22__funtmp_cuCtxGetFlagsE
000000000031be78 l     O .bss	0000000000000008              _ZN6cudart24__funtmp_cuCtxSetCurrentE
000000000031be80 l     O .bss	0000000000000008              _ZN6cudart24__funtmp_cuCtxGetCurrentE
000000000031be88 l     O .bss	0000000000000008              _ZN6cudart20__funtmp_cuCtxDetachE
000000000031be90 l     O .bss	0000000000000008              _ZN6cudart27__funtmp_cuCtxGetApiVersionE
000000000031be98 l     O .bss	0000000000000008              _ZN6cudart23__funtmp_cuCtxGetDeviceE
000000000031bea0 l     O .bss	0000000000000008              _ZN6cudart22__funtmp_cuCtxGetLimitE
000000000031bea8 l     O .bss	0000000000000008              _ZN6cudart22__funtmp_cuCtxSetLimitE
000000000031beb0 l     O .bss	0000000000000008              _ZN6cudart28__funtmp_cuCtxGetCacheConfigE
000000000031beb8 l     O .bss	0000000000000008              _ZN6cudart28__funtmp_cuCtxSetCacheConfigE
000000000031bec0 l     O .bss	0000000000000008              _ZN6cudart32__funtmp_cuCtxGetSharedMemConfigE
000000000031bec8 l     O .bss	0000000000000008              _ZN6cudart36__funtmp_cuCtxGetStreamPriorityRangeE
000000000031bed0 l     O .bss	0000000000000008              _ZN6cudart32__funtmp_cuCtxSetSharedMemConfigE
000000000031bed8 l     O .bss	0000000000000008              _ZN6cudart25__funtmp_cuCtxSynchronizeE
000000000031bee0 l     O .bss	0000000000000008              _ZN6cudart21__funtmp_cuModuleLoadE
000000000031bee8 l     O .bss	0000000000000008              _ZN6cudart25__funtmp_cuModuleLoadDataE
000000000031bef0 l     O .bss	0000000000000008              _ZN6cudart30__funtmp_cuModuleLoadFatBinaryE
000000000031bef8 l     O .bss	0000000000000008              _ZN6cudart23__funtmp_cuModuleUnloadE
000000000031bf00 l     O .bss	0000000000000008              _ZN6cudart28__funtmp_cuModuleGetFunctionE
000000000031bf08 l     O .bss	0000000000000008              _ZN6cudart29__funtmp_cuModuleGetGlobal_v2E
000000000031bf10 l     O .bss	0000000000000008              _ZN6cudart26__funtmp_cuModuleGetTexRefE
000000000031bf18 l     O .bss	0000000000000008              _ZN6cudart27__funtmp_cuModuleGetSurfRefE
000000000031bf20 l     O .bss	0000000000000008              _ZN6cudart21__funtmp_cuLinkCreateE
000000000031bf28 l     O .bss	0000000000000008              _ZN6cudart22__funtmp_cuLinkAddDataE
000000000031bf30 l     O .bss	0000000000000008              _ZN6cudart22__funtmp_cuLinkAddFileE
000000000031bf38 l     O .bss	0000000000000008              _ZN6cudart23__funtmp_cuLinkCompleteE
000000000031bf40 l     O .bss	0000000000000008              _ZN6cudart22__funtmp_cuLinkDestroyE
000000000031bf48 l     O .bss	0000000000000008              _ZN6cudart24__funtmp_cuMemGetInfo_v2E
000000000031bf50 l     O .bss	0000000000000008              _ZN6cudart26__funtmp_cuMemAllocManagedE
000000000031bf58 l     O .bss	0000000000000008              _ZN6cudart22__funtmp_cuMemAlloc_v2E
000000000031bf60 l     O .bss	0000000000000008              _ZN6cudart27__funtmp_cuMemAllocPitch_v2E
000000000031bf68 l     O .bss	0000000000000008              _ZN6cudart21__funtmp_cuMemFree_v2E
000000000031bf70 l     O .bss	0000000000000008              _ZN6cudart32__funtmp_cuMemGetAddressRange_v2E
000000000031bf78 l     O .bss	0000000000000008              _ZN6cudart22__funtmp_cuMemFreeHostE
000000000031bf80 l     O .bss	0000000000000008              _ZN6cudart23__funtmp_cuMemHostAllocE
000000000031bf88 l     O .bss	0000000000000008              _ZN6cudart37__funtmp_cuMemHostGetDevicePointer_v2E
000000000031bf90 l     O .bss	0000000000000008              _ZN6cudart26__funtmp_cuMemHostGetFlagsE
000000000031bf98 l     O .bss	0000000000000008              _ZN6cudart29__funtmp_cuMemHostRegister_v2E
000000000031bfa0 l     O .bss	0000000000000008              _ZN6cudart28__funtmp_cuMemHostUnregisterE
000000000031bfa8 l     O .bss	0000000000000008              _ZN6cudart30__funtmp_cuPointerGetAttributeE
000000000031bfb0 l     O .bss	0000000000000008              _ZN6cudart31__funtmp_cuPointerGetAttributesE
000000000031bfb8 l     O .bss	0000000000000008              _ZN6cudart17__funtmp_cuMemcpyE
000000000031bfc0 l     O .bss	0000000000000008              _ZN6cudart22__funtmp_cuMemcpy_ptdsE
000000000031bfc8 l     O .bss	0000000000000008              _ZN6cudart22__funtmp_cuMemcpyAsyncE
000000000031bfd0 l     O .bss	0000000000000008              _ZN6cudart27__funtmp_cuMemcpyAsync_ptszE
000000000031bfd8 l     O .bss	0000000000000008              _ZN6cudart21__funtmp_cuMemcpyPeerE
000000000031bfe0 l     O .bss	0000000000000008              _ZN6cudart26__funtmp_cuMemcpyPeer_ptdsE
000000000031bfe8 l     O .bss	0000000000000008              _ZN6cudart26__funtmp_cuMemcpyPeerAsyncE
000000000031bff0 l     O .bss	0000000000000008              _ZN6cudart31__funtmp_cuMemcpyPeerAsync_ptszE
000000000031bff8 l     O .bss	0000000000000008              _ZN6cudart24__funtmp_cuMemcpyHtoD_v2E
000000000031c000 l     O .bss	0000000000000008              _ZN6cudart29__funtmp_cuMemcpyHtoD_v2_ptdsE
000000000031c008 l     O .bss	0000000000000008              _ZN6cudart29__funtmp_cuMemcpyHtoDAsync_v2E
000000000031c010 l     O .bss	0000000000000008              _ZN6cudart34__funtmp_cuMemcpyHtoDAsync_v2_ptszE
000000000031c018 l     O .bss	0000000000000008              _ZN6cudart24__funtmp_cuMemcpyDtoH_v2E
000000000031c020 l     O .bss	0000000000000008              _ZN6cudart29__funtmp_cuMemcpyDtoH_v2_ptdsE
000000000031c028 l     O .bss	0000000000000008              _ZN6cudart29__funtmp_cuMemcpyDtoHAsync_v2E
000000000031c030 l     O .bss	0000000000000008              _ZN6cudart34__funtmp_cuMemcpyDtoHAsync_v2_ptszE
000000000031c038 l     O .bss	0000000000000008              _ZN6cudart24__funtmp_cuMemcpyDtoD_v2E
000000000031c040 l     O .bss	0000000000000008              _ZN6cudart29__funtmp_cuMemcpyDtoD_v2_ptdsE
000000000031c048 l     O .bss	0000000000000008              _ZN6cudart29__funtmp_cuMemcpyDtoDAsync_v2E
000000000031c050 l     O .bss	0000000000000008              _ZN6cudart34__funtmp_cuMemcpyDtoDAsync_v2_ptszE
000000000031c058 l     O .bss	0000000000000008              _ZN6cudart31__funtmp_cuMemcpy2DUnaligned_v2E
000000000031c060 l     O .bss	0000000000000008              _ZN6cudart36__funtmp_cuMemcpy2DUnaligned_v2_ptdsE
000000000031c068 l     O .bss	0000000000000008              _ZN6cudart27__funtmp_cuMemcpy2DAsync_v2E
000000000031c070 l     O .bss	0000000000000008              _ZN6cudart32__funtmp_cuMemcpy2DAsync_v2_ptszE
000000000031c078 l     O .bss	0000000000000008              _ZN6cudart22__funtmp_cuMemcpy3D_v2E
000000000031c080 l     O .bss	0000000000000008              _ZN6cudart27__funtmp_cuMemcpy3D_v2_ptdsE
000000000031c088 l     O .bss	0000000000000008              _ZN6cudart27__funtmp_cuMemcpy3DAsync_v2E
000000000031c090 l     O .bss	0000000000000008              _ZN6cudart32__funtmp_cuMemcpy3DAsync_v2_ptszE
000000000031c098 l     O .bss	0000000000000008              _ZN6cudart23__funtmp_cuMemcpy3DPeerE
000000000031c0a0 l     O .bss	0000000000000008              _ZN6cudart28__funtmp_cuMemcpy3DPeer_ptdsE
000000000031c0a8 l     O .bss	0000000000000008              _ZN6cudart28__funtmp_cuMemcpy3DPeerAsyncE
000000000031c0b0 l     O .bss	0000000000000008              _ZN6cudart33__funtmp_cuMemcpy3DPeerAsync_ptszE
000000000031c0b8 l     O .bss	0000000000000008              _ZN6cudart22__funtmp_cuMemsetD8_v2E
000000000031c0c0 l     O .bss	0000000000000008              _ZN6cudart27__funtmp_cuMemsetD8_v2_ptdsE
000000000031c0c8 l     O .bss	0000000000000008              _ZN6cudart24__funtmp_cuMemsetD8AsyncE
000000000031c0d0 l     O .bss	0000000000000008              _ZN6cudart29__funtmp_cuMemsetD8Async_ptszE
000000000031c0d8 l     O .bss	0000000000000008              _ZN6cudart24__funtmp_cuMemsetD2D8_v2E
000000000031c0e0 l     O .bss	0000000000000008              _ZN6cudart29__funtmp_cuMemsetD2D8_v2_ptdsE
000000000031c0e8 l     O .bss	0000000000000008              _ZN6cudart26__funtmp_cuMemsetD2D8AsyncE
000000000031c0f0 l     O .bss	0000000000000008              _ZN6cudart31__funtmp_cuMemsetD2D8Async_ptszE
000000000031c0f8 l     O .bss	0000000000000008              _ZN6cudart29__funtmp_cuFuncSetCacheConfigE
000000000031c100 l     O .bss	0000000000000008              _ZN6cudart33__funtmp_cuFuncSetSharedMemConfigE
000000000031c108 l     O .bss	0000000000000008              _ZN6cudart27__funtmp_cuFuncGetAttributeE
000000000031c110 l     O .bss	0000000000000008              _ZN6cudart27__funtmp_cuFuncSetAttributeE
000000000031c118 l     O .bss	0000000000000008              _ZN6cudart25__funtmp_cuArrayCreate_v2E
000000000031c120 l     O .bss	0000000000000008              _ZN6cudart32__funtmp_cuArrayGetDescriptor_v2E
000000000031c128 l     O .bss	0000000000000008              _ZN6cudart27__funtmp_cuArray3DCreate_v2E
000000000031c130 l     O .bss	0000000000000008              _ZN6cudart34__funtmp_cuArray3DGetDescriptor_v2E
000000000031c138 l     O .bss	0000000000000008              _ZN6cudart23__funtmp_cuArrayDestroyE
000000000031c140 l     O .bss	0000000000000008              _ZN6cudart31__funtmp_cuMipmappedArrayCreateE
000000000031c148 l     O .bss	0000000000000008              _ZN6cudart33__funtmp_cuMipmappedArrayGetLevelE
000000000031c150 l     O .bss	0000000000000008              _ZN6cudart32__funtmp_cuMipmappedArrayDestroyE
000000000031c158 l     O .bss	0000000000000008              _ZN6cudart23__funtmp_cuTexRefCreateE
000000000031c160 l     O .bss	0000000000000008              _ZN6cudart24__funtmp_cuTexRefDestroyE
000000000031c168 l     O .bss	0000000000000008              _ZN6cudart25__funtmp_cuTexRefSetArrayE
000000000031c170 l     O .bss	0000000000000008              _ZN6cudart34__funtmp_cuTexRefSetMipmappedArrayE
000000000031c178 l     O .bss	0000000000000008              _ZN6cudart30__funtmp_cuTexRefSetAddress_v2E
000000000031c180 l     O .bss	0000000000000008              _ZN6cudart32__funtmp_cuTexRefSetAddress2D_v3E
000000000031c188 l     O .bss	0000000000000008              _ZN6cudart26__funtmp_cuTexRefSetFormatE
000000000031c190 l     O .bss	0000000000000008              _ZN6cudart31__funtmp_cuTexRefSetAddressModeE
000000000031c198 l     O .bss	0000000000000008              _ZN6cudart30__funtmp_cuTexRefSetFilterModeE
000000000031c1a0 l     O .bss	0000000000000008              _ZN6cudart36__funtmp_cuTexRefSetMipmapFilterModeE
000000000031c1a8 l     O .bss	0000000000000008              _ZN6cudart35__funtmp_cuTexRefSetMipmapLevelBiasE
000000000031c1b0 l     O .bss	0000000000000008              _ZN6cudart36__funtmp_cuTexRefSetMipmapLevelClampE
000000000031c1b8 l     O .bss	0000000000000008              _ZN6cudart33__funtmp_cuTexRefSetMaxAnisotropyE
000000000031c1c0 l     O .bss	0000000000000008              _ZN6cudart25__funtmp_cuTexRefSetFlagsE
000000000031c1c8 l     O .bss	0000000000000008              _ZN6cudart31__funtmp_cuTexRefSetBorderColorE
000000000031c1d0 l     O .bss	0000000000000008              _ZN6cudart31__funtmp_cuTexRefGetBorderColorE
000000000031c1d8 l     O .bss	0000000000000008              _ZN6cudart26__funtmp_cuSurfRefSetArrayE
000000000031c1e0 l     O .bss	0000000000000008              _ZN6cudart26__funtmp_cuTexObjectCreateE
000000000031c1e8 l     O .bss	0000000000000008              _ZN6cudart27__funtmp_cuTexObjectDestroyE
000000000031c1f0 l     O .bss	0000000000000008              _ZN6cudart35__funtmp_cuTexObjectGetResourceDescE
000000000031c1f8 l     O .bss	0000000000000008              _ZN6cudart34__funtmp_cuTexObjectGetTextureDescE
000000000031c200 l     O .bss	0000000000000008              _ZN6cudart39__funtmp_cuTexObjectGetResourceViewDescE
000000000031c208 l     O .bss	0000000000000008              _ZN6cudart27__funtmp_cuSurfObjectCreateE
000000000031c210 l     O .bss	0000000000000008              _ZN6cudart28__funtmp_cuSurfObjectDestroyE
000000000031c218 l     O .bss	0000000000000008              _ZN6cudart36__funtmp_cuSurfObjectGetResourceDescE
000000000031c220 l     O .bss	0000000000000008              _ZN6cudart31__funtmp_cuImportExternalMemoryE
000000000031c228 l     O .bss	0000000000000008              _ZN6cudart40__funtmp_cuExternalMemoryGetMappedBufferE
000000000031c230 l     O .bss	0000000000000008              _ZN6cudart48__funtmp_cuExternalMemoryGetMappedMipmappedArrayE
000000000031c238 l     O .bss	0000000000000008              _ZN6cudart32__funtmp_cuDestroyExternalMemoryE
000000000031c240 l     O .bss	0000000000000008              _ZN6cudart34__funtmp_cuImportExternalSemaphoreE
000000000031c248 l     O .bss	0000000000000008              _ZN6cudart40__funtmp_cuSignalExternalSemaphoresAsyncE
000000000031c250 l     O .bss	0000000000000008              _ZN6cudart45__funtmp_cuSignalExternalSemaphoresAsync_ptszE
000000000031c258 l     O .bss	0000000000000008              _ZN6cudart38__funtmp_cuWaitExternalSemaphoresAsyncE
000000000031c260 l     O .bss	0000000000000008              _ZN6cudart43__funtmp_cuWaitExternalSemaphoresAsync_ptszE
000000000031c268 l     O .bss	0000000000000008              _ZN6cudart35__funtmp_cuDestroyExternalSemaphoreE
000000000031c270 l     O .bss	0000000000000008              _ZN6cudart23__funtmp_cuLaunchKernelE
000000000031c278 l     O .bss	0000000000000008              _ZN6cudart28__funtmp_cuLaunchKernel_ptszE
000000000031c280 l     O .bss	0000000000000008              _ZN6cudart34__funtmp_cuLaunchCooperativeKernelE
000000000031c288 l     O .bss	0000000000000008              _ZN6cudart39__funtmp_cuLaunchCooperativeKernel_ptszE
000000000031c290 l     O .bss	0000000000000008              _ZN6cudart45__funtmp_cuLaunchCooperativeKernelMultiDeviceE
000000000031c298 l     O .bss	0000000000000008              _ZN6cudart25__funtmp_cuLaunchHostFuncE
000000000031c2a0 l     O .bss	0000000000000008              _ZN6cudart30__funtmp_cuLaunchHostFunc_ptszE
000000000031c2a8 l     O .bss	0000000000000008              _ZN6cudart22__funtmp_cuEventCreateE
000000000031c2b0 l     O .bss	0000000000000008              _ZN6cudart22__funtmp_cuEventRecordE
000000000031c2b8 l     O .bss	0000000000000008              _ZN6cudart27__funtmp_cuEventRecord_ptszE
000000000031c2c0 l     O .bss	0000000000000008              _ZN6cudart21__funtmp_cuEventQueryE
000000000031c2c8 l     O .bss	0000000000000008              _ZN6cudart27__funtmp_cuEventSynchronizeE
000000000031c2d0 l     O .bss	0000000000000008              _ZN6cudart26__funtmp_cuEventDestroy_v2E
000000000031c2d8 l     O .bss	0000000000000008              _ZN6cudart27__funtmp_cuEventElapsedTimeE
000000000031c2e0 l     O .bss	0000000000000008              _ZN6cudart28__funtmp_cuStreamWaitValue32E
000000000031c2e8 l     O .bss	0000000000000008              _ZN6cudart33__funtmp_cuStreamWaitValue32_ptszE
000000000031c2f0 l     O .bss	0000000000000008              _ZN6cudart29__funtmp_cuStreamWriteValue32E
000000000031c2f8 l     O .bss	0000000000000008              _ZN6cudart34__funtmp_cuStreamWriteValue32_ptszE
000000000031c300 l     O .bss	0000000000000008              _ZN6cudart28__funtmp_cuStreamWaitValue64E
000000000031c308 l     O .bss	0000000000000008              _ZN6cudart33__funtmp_cuStreamWaitValue64_ptszE
000000000031c310 l     O .bss	0000000000000008              _ZN6cudart29__funtmp_cuStreamWriteValue64E
000000000031c318 l     O .bss	0000000000000008              _ZN6cudart34__funtmp_cuStreamWriteValue64_ptszE
000000000031c320 l     O .bss	0000000000000008              _ZN6cudart27__funtmp_cuStreamBatchMemOpE
000000000031c328 l     O .bss	0000000000000008              _ZN6cudart32__funtmp_cuStreamBatchMemOp_ptszE
000000000031c330 l     O .bss	0000000000000008              _ZN6cudart23__funtmp_cuStreamCreateE
000000000031c338 l     O .bss	0000000000000008              _ZN6cudart35__funtmp_cuStreamCreateWithPriorityE
000000000031c340 l     O .bss	0000000000000008              _ZN6cudart28__funtmp_cuStreamGetPriorityE
000000000031c348 l     O .bss	0000000000000008              _ZN6cudart33__funtmp_cuStreamGetPriority_ptszE
000000000031c350 l     O .bss	0000000000000008              _ZN6cudart25__funtmp_cuStreamGetFlagsE
000000000031c358 l     O .bss	0000000000000008              _ZN6cudart23__funtmp_cuStreamGetCtxE
000000000031c360 l     O .bss	0000000000000008              _ZN6cudart30__funtmp_cuStreamGetFlags_ptszE
000000000031c368 l     O .bss	0000000000000008              _ZN6cudart27__funtmp_cuStreamDestroy_v2E
000000000031c370 l     O .bss	0000000000000008              _ZN6cudart26__funtmp_cuStreamWaitEventE
000000000031c378 l     O .bss	0000000000000008              _ZN6cudart31__funtmp_cuStreamWaitEvent_ptszE
000000000031c380 l     O .bss	0000000000000008              _ZN6cudart28__funtmp_cuStreamAddCallbackE
000000000031c388 l     O .bss	0000000000000008              _ZN6cudart33__funtmp_cuStreamAddCallback_ptszE
000000000031c390 l     O .bss	0000000000000008              _ZN6cudart28__funtmp_cuStreamSynchronizeE
000000000031c398 l     O .bss	0000000000000008              _ZN6cudart33__funtmp_cuStreamSynchronize_ptszE
000000000031c3a0 l     O .bss	0000000000000008              _ZN6cudart22__funtmp_cuStreamQueryE
000000000031c3a8 l     O .bss	0000000000000008              _ZN6cudart27__funtmp_cuStreamQuery_ptszE
000000000031c3b0 l     O .bss	0000000000000008              _ZN6cudart31__funtmp_cuStreamAttachMemAsyncE
000000000031c3b8 l     O .bss	0000000000000008              _ZN6cudart36__funtmp_cuStreamAttachMemAsync_ptszE
000000000031c3c0 l     O .bss	0000000000000008              _ZN6cudart30__funtmp_cuDeviceCanAccessPeerE
000000000031c3c8 l     O .bss	0000000000000008              _ZN6cudart30__funtmp_cuCtxEnablePeerAccessE
000000000031c3d0 l     O .bss	0000000000000008              _ZN6cudart31__funtmp_cuCtxDisablePeerAccessE
000000000031c3d8 l     O .bss	0000000000000008              _ZN6cudart28__funtmp_cuIpcGetEventHandleE
000000000031c3e0 l     O .bss	0000000000000008              _ZN6cudart29__funtmp_cuIpcOpenEventHandleE
000000000031c3e8 l     O .bss	0000000000000008              _ZN6cudart26__funtmp_cuIpcGetMemHandleE
000000000031c3f0 l     O .bss	0000000000000008              _ZN6cudart27__funtmp_cuIpcOpenMemHandleE
000000000031c3f8 l     O .bss	0000000000000008              _ZN6cudart28__funtmp_cuIpcCloseMemHandleE
000000000031c400 l     O .bss	0000000000000008              _ZN6cudart25__funtmp_cuGLCtxCreate_v2E
000000000031c408 l     O .bss	0000000000000008              _ZN6cudart17__funtmp_cuGLInitE
000000000031c410 l     O .bss	0000000000000008              _ZN6cudart23__funtmp_cuGLGetDevicesE
000000000031c418 l     O .bss	0000000000000008              _ZN6cudart33__funtmp_cuGLRegisterBufferObjectE
000000000031c420 l     O .bss	0000000000000008              _ZN6cudart31__funtmp_cuGLMapBufferObject_v2E
000000000031c428 l     O .bss	0000000000000008              _ZN6cudart36__funtmp_cuGLMapBufferObject_v2_ptdsE
000000000031c430 l     O .bss	0000000000000008              _ZN6cudart36__funtmp_cuGLMapBufferObjectAsync_v2E
000000000031c438 l     O .bss	0000000000000008              _ZN6cudart41__funtmp_cuGLMapBufferObjectAsync_v2_ptszE
000000000031c440 l     O .bss	0000000000000008              _ZN6cudart30__funtmp_cuGLUnmapBufferObjectE
000000000031c448 l     O .bss	0000000000000008              _ZN6cudart35__funtmp_cuGLUnmapBufferObjectAsyncE
000000000031c450 l     O .bss	0000000000000008              _ZN6cudart35__funtmp_cuGLUnregisterBufferObjectE
000000000031c458 l     O .bss	0000000000000008              _ZN6cudart36__funtmp_cuGLSetBufferObjectMapFlagsE
000000000031c460 l     O .bss	0000000000000008              _ZN6cudart34__funtmp_cuGraphicsGLRegisterImageE
000000000031c468 l     O .bss	0000000000000008              _ZN6cudart35__funtmp_cuGraphicsGLRegisterBufferE
000000000031c470 l     O .bss	0000000000000008              _ZN6cudart35__funtmp_cuGraphicsEGLRegisterImageE
000000000031c478 l     O .bss	0000000000000008              _ZN6cudart35__funtmp_cuEGLStreamConsumerConnectE
000000000031c480 l     O .bss	0000000000000008              _ZN6cudart38__funtmp_cuEGLStreamConsumerDisconnectE
000000000031c488 l     O .bss	0000000000000008              _ZN6cudart40__funtmp_cuEGLStreamConsumerAcquireFrameE
000000000031c490 l     O .bss	0000000000000008              _ZN6cudart40__funtmp_cuEGLStreamConsumerReleaseFrameE
000000000031c498 l     O .bss	0000000000000008              _ZN6cudart35__funtmp_cuEGLStreamProducerConnectE
000000000031c4a0 l     O .bss	0000000000000008              _ZN6cudart38__funtmp_cuEGLStreamProducerDisconnectE
000000000031c4a8 l     O .bss	0000000000000008              _ZN6cudart40__funtmp_cuEGLStreamProducerPresentFrameE
000000000031c4b0 l     O .bss	0000000000000008              _ZN6cudart39__funtmp_cuEGLStreamProducerReturnFrameE
000000000031c4b8 l     O .bss	0000000000000008              _ZN6cudart44__funtmp_cuGraphicsResourceGetMappedEglFrameE
000000000031c4c0 l     O .bss	0000000000000008              _ZN6cudart44__funtmp_cuEGLStreamConsumerConnectWithFlagsE
000000000031c4c8 l     O .bss	0000000000000008              _ZN6cudart37__funtmp_cuGraphicsUnregisterResourceE
000000000031c4d0 l     O .bss	0000000000000008              _ZN6cudart31__funtmp_cuGraphicsMapResourcesE
000000000031c4d8 l     O .bss	0000000000000008              _ZN6cudart36__funtmp_cuGraphicsMapResources_ptszE
000000000031c4e0 l     O .bss	0000000000000008              _ZN6cudart33__funtmp_cuGraphicsUnmapResourcesE
000000000031c4e8 l     O .bss	0000000000000008              _ZN6cudart38__funtmp_cuGraphicsUnmapResources_ptszE
000000000031c4f0 l     O .bss	0000000000000008              _ZN6cudart41__funtmp_cuGraphicsResourceSetMapFlags_v2E
000000000031c4f8 l     O .bss	0000000000000008              _ZN6cudart44__funtmp_cuGraphicsSubResourceGetMappedArrayE
000000000031c500 l     O .bss	0000000000000008              _ZN6cudart50__funtmp_cuGraphicsResourceGetMappedMipmappedArrayE
000000000031c508 l     O .bss	0000000000000008              _ZN6cudart46__funtmp_cuGraphicsResourceGetMappedPointer_v2E
000000000031c510 l     O .bss	0000000000000008              _ZN6cudart29__funtmp_cuProfilerInitializeE
000000000031c518 l     O .bss	0000000000000008              _ZN6cudart24__funtmp_cuProfilerStartE
000000000031c520 l     O .bss	0000000000000008              _ZN6cudart23__funtmp_cuProfilerStopE
000000000031c528 l     O .bss	0000000000000008              _ZN6cudart25__funtmp_cuVDPAUGetDeviceE
000000000031c530 l     O .bss	0000000000000008              _ZN6cudart28__funtmp_cuVDPAUCtxCreate_v2E
000000000031c538 l     O .bss	0000000000000008              _ZN6cudart44__funtmp_cuGraphicsVDPAURegisterVideoSurfaceE
000000000031c540 l     O .bss	0000000000000008              _ZN6cudart45__funtmp_cuGraphicsVDPAURegisterOutputSurfaceE
000000000031c548 l     O .bss	0000000000000008              _ZN6cudart25__funtmp_cuGetExportTableE
000000000031c550 l     O .bss	0000000000000008              _ZN6cudart61__funtmp_cuOccupancyMaxActiveBlocksPerMultiprocessorWithFlagsE
000000000031c558 l     O .bss	0000000000000008              _ZN6cudart20__funtmp_cuMemAdviseE
000000000031c560 l     O .bss	0000000000000008              _ZN6cudart27__funtmp_cuMemPrefetchAsyncE
000000000031c568 l     O .bss	0000000000000008              _ZN6cudart32__funtmp_cuMemPrefetchAsync_ptszE
000000000031c570 l     O .bss	0000000000000008              _ZN6cudart31__funtmp_cuMemRangeGetAttributeE
000000000031c578 l     O .bss	0000000000000008              _ZN6cudart32__funtmp_cuMemRangeGetAttributesE
000000000031c580 l     O .bss	0000000000000008              _ZN6cudart25__funtmp_cuGetErrorStringE
000000000031c588 l     O .bss	0000000000000008              _ZN6cudart23__funtmp_cuGetErrorNameE
000000000031c590 l     O .bss	0000000000000008              _ZN6cudart22__funtmp_cuGraphCreateE
000000000031c598 l     O .bss	0000000000000008              _ZN6cudart29__funtmp_cuGraphAddKernelNodeE
000000000031c5a0 l     O .bss	0000000000000008              _ZN6cudart35__funtmp_cuGraphKernelNodeGetParamsE
000000000031c5a8 l     O .bss	0000000000000008              _ZN6cudart35__funtmp_cuGraphKernelNodeSetParamsE
000000000031c5b0 l     O .bss	0000000000000008              _ZN6cudart29__funtmp_cuGraphAddMemcpyNodeE
000000000031c5b8 l     O .bss	0000000000000008              _ZN6cudart35__funtmp_cuGraphMemcpyNodeGetParamsE
000000000031c5c0 l     O .bss	0000000000000008              _ZN6cudart35__funtmp_cuGraphMemcpyNodeSetParamsE
000000000031c5c8 l     O .bss	0000000000000008              _ZN6cudart29__funtmp_cuGraphAddMemsetNodeE
000000000031c5d0 l     O .bss	0000000000000008              _ZN6cudart35__funtmp_cuGraphMemsetNodeGetParamsE
000000000031c5d8 l     O .bss	0000000000000008              _ZN6cudart35__funtmp_cuGraphMemsetNodeSetParamsE
000000000031c5e0 l     O .bss	0000000000000008              _ZN6cudart27__funtmp_cuGraphAddHostNodeE
000000000031c5e8 l     O .bss	0000000000000008              _ZN6cudart33__funtmp_cuGraphHostNodeGetParamsE
000000000031c5f0 l     O .bss	0000000000000008              _ZN6cudart33__funtmp_cuGraphHostNodeSetParamsE
000000000031c5f8 l     O .bss	0000000000000008              _ZN6cudart33__funtmp_cuGraphAddChildGraphNodeE
000000000031c600 l     O .bss	0000000000000008              _ZN6cudart38__funtmp_cuGraphChildGraphNodeGetGraphE
000000000031c608 l     O .bss	0000000000000008              _ZN6cudart28__funtmp_cuGraphAddEmptyNodeE
000000000031c610 l     O .bss	0000000000000008              _ZN6cudart21__funtmp_cuGraphCloneE
000000000031c618 l     O .bss	0000000000000008              _ZN6cudart31__funtmp_cuGraphNodeFindInCloneE
000000000031c620 l     O .bss	0000000000000008              _ZN6cudart27__funtmp_cuGraphNodeGetTypeE
000000000031c628 l     O .bss	0000000000000008              _ZN6cudart24__funtmp_cuGraphGetNodesE
000000000031c630 l     O .bss	0000000000000008              _ZN6cudart28__funtmp_cuGraphGetRootNodesE
000000000031c638 l     O .bss	0000000000000008              _ZN6cudart24__funtmp_cuGraphGetEdgesE
000000000031c640 l     O .bss	0000000000000008              _ZN6cudart35__funtmp_cuGraphNodeGetDependenciesE
000000000031c648 l     O .bss	0000000000000008              _ZN6cudart37__funtmp_cuGraphNodeGetDependentNodesE
000000000031c650 l     O .bss	0000000000000008              _ZN6cudart31__funtmp_cuGraphAddDependenciesE
000000000031c658 l     O .bss	0000000000000008              _ZN6cudart34__funtmp_cuGraphRemoveDependenciesE
000000000031c660 l     O .bss	0000000000000008              _ZN6cudart27__funtmp_cuGraphDestroyNodeE
000000000031c668 l     O .bss	0000000000000008              _ZN6cudart27__funtmp_cuGraphInstantiateE
000000000031c670 l     O .bss	0000000000000008              _ZN6cudart22__funtmp_cuGraphLaunchE
000000000031c678 l     O .bss	0000000000000008              _ZN6cudart27__funtmp_cuGraphLaunch_ptszE
000000000031c680 l     O .bss	0000000000000008              _ZN6cudart27__funtmp_cuGraphExecDestroyE
000000000031c688 l     O .bss	0000000000000008              _ZN6cudart23__funtmp_cuGraphDestroyE
000000000031c690 l     O .bss	0000000000000008              _ZN6cudart29__funtmp_cuStreamBeginCaptureE
000000000031c698 l     O .bss	0000000000000008              _ZN6cudart34__funtmp_cuStreamBeginCapture_ptszE
000000000031c6a0 l     O .bss	0000000000000008              _ZN6cudart32__funtmp_cuStreamBeginCapture_v2E
000000000031c6a8 l     O .bss	0000000000000008              _ZN6cudart37__funtmp_cuStreamBeginCapture_v2_ptszE
000000000031c6b0 l     O .bss	0000000000000008              _ZN6cudart27__funtmp_cuStreamEndCaptureE
000000000031c6b8 l     O .bss	0000000000000008              _ZN6cudart32__funtmp_cuStreamEndCapture_ptszE
000000000031c6c0 l     O .bss	0000000000000008              _ZN6cudart28__funtmp_cuStreamIsCapturingE
000000000031c6c8 l     O .bss	0000000000000008              _ZN6cudart33__funtmp_cuStreamIsCapturing_ptszE
000000000031c6d0 l     O .bss	0000000000000008              _ZN6cudart31__funtmp_cuStreamGetCaptureInfoE
000000000031c6d8 l     O .bss	0000000000000008              _ZN6cudart36__funtmp_cuStreamGetCaptureInfo_ptszE
000000000031c6e0 l     O .bss	0000000000000008              _ZN6cudart39__funtmp_cuGraphExecKernelNodeSetParamsE
000000000031c6e8 l     O .bss	0000000000000008              _ZN6cudart42__funtmp_cuThreadExchangeStreamCaptureModeE
00000000000642e0 l     O .rodata	0000000000000010              CU_ETID_CudartInterface
00000000000642f0 l     O .rodata	0000000000000010              CU_ETID_ToolsRuntimeCallbackHooks
0000000000021ee0 l     F .text	000000000000004e              _Z41__static_initialization_and_destruction_0ii
0000000000024a00 l     F .text	0000000000000042              __tcf_0
0000000000023c70 l     F .text	0000000000000042              _ZN6cudart18releaseGlobalStateEv
00000000000642d0 l     O .rodata	0000000000000010              CU_ETID_ToolsTls
000000000031bda8 l     O .bss	0000000000000001              _ZN6cudart7nothrowE
0000000000000000 l    df *ABS*	0000000000000000              cudart_thread.cpp
0000000000024b80 l     F .text	000000000000000c              _GLOBAL__I__ZN6cudart11threadState10initializeEv
0000000000024b70 l     F .text	0000000000000002              _Z41__static_initialization_and_destruction_0ii
000000000031c6f4 l     O .bss	0000000000000001              _ZN6cudart7nothrowE
0000000000000000 l    df *ABS*	0000000000000000              cudart_context.cpp
00000000000254e0 l     F .text	000000000000000c              _GLOBAL__I__ZN6cudart6moduleC2EPNS_12contextStateEP8CUmod_st14cudaError_enum
00000000000254d0 l     F .text	0000000000000002              _Z41__static_initialization_and_destruction_0ii
000000000031c6f8 l     O .bss	0000000000000001              _ZN6cudart7nothrowE
0000000000000000 l    df *ABS*	0000000000000000              cudart_context_mgr.cpp
000000000002faa0 l     F .text	000000000000000c              _GLOBAL__I__ZN6cudart19contextStateManager6createEPPS0_PNS_11globalStateEPNS_9deviceMgrE
000000000002fa90 l     F .text	0000000000000002              _Z41__static_initialization_and_destruction_0ii
0000000000064300 l     O .rodata	0000000000000010              CU_ETID_ContextLocalStorageInterface_v0301
0000000000032370 l     F .text	000000000000005a              _ZN6cudart25clsContextDestroyCallbackEP8CUctx_stPvS2_
000000000031c6fc l     O .bss	0000000000000001              _ZN6cudart7nothrowE
0000000000000000 l    df *ABS*	0000000000000000              cudart_array.cpp
0000000000033d20 l     F .text	000000000000000c              _GLOBAL__I__ZN6cudart11arrayHelper34getChannelFormatDescFromDriverDescEP21cudaChannelFormatDescPmS3_S3_PK26CUDA_ARRAY3D_DESCRIPTOR_st
0000000000033d10 l     F .text	0000000000000002              _Z41__static_initialization_and_destruction_0ii
0000000000033e80 l     F .text	00000000000001db              _ZN6cudart11arrayHelper13getLocalStateEPNS0_19cudaArrayLocalStateEPK9cudaArray
000000000031c700 l     O .bss	0000000000000001              _ZN6cudart7nothrowE
0000000000000000 l    df *ABS*	0000000000000000              cudart_helper.cpp
0000000000035c70 l     F .text	000000000000000c              _GLOBAL__I__ZN6cudart12driverHelper17getCurrentContextEPP8CUctx_st
0000000000035c60 l     F .text	0000000000000002              _Z41__static_initialization_and_destruction_0ii
000000000031c704 l     O .bss	0000000000000001              _ZN6cudart7nothrowE
0000000000000000 l    df *ABS*	0000000000000000              cudart_tls.cpp
0000000000038250 l     F .text	000000000000000c              _GLOBAL__I__ZN6cudart14getThreadStateEPPNS_11threadStateE
0000000000038240 l     F .text	0000000000000002              _Z41__static_initialization_and_destruction_0ii
0000000000000000 l       .tbss	0000000000000298              _ZN102_GLOBAL__N__dvs_p4_build_sw_rel_gpgpu_toolkit_r10.1_cuda_tools_cudart_cudart_tls.cpp_00000000_8E7985783tlsE
000000000031c708 l     O .bss	0000000000000001              _ZN6cudart7nothrowE
0000000000000000 l    df *ABS*	0000000000000000              cudart_etbl.cpp
00000000000382c0 l     F .text	000000000000000c              _GLOBAL__I___cudaGetExportTableInternal
00000000000382b0 l     F .text	0000000000000002              _Z41__static_initialization_and_destruction_0ii
000000000031a840 l     O .data.rel.ro	0000000000000030              _ZN103_GLOBAL__N__dvs_p4_build_sw_rel_gpgpu_toolkit_r10.1_cuda_tools_cudart_cudart_etbl.cpp_00000000_5C6044A47etblMapE
000000000031c70c l     O .bss	0000000000000001              _ZN6cudart7nothrowE
00000000000644c0 l     O .rodata	0000000000000010              CU_ETID_ToolsRuntimeInstance
00000000000644d0 l     O .rodata	0000000000000010              CU_ETID_ToolsRuntimeCallbacks
0000000000000000 l    df *ABS*	0000000000000000              tools_runtime_instance.cpp
00000000000383f0 l     F .text	000000000000000c              _GLOBAL__I__ZN6cudart26g_etblToolsRuntimeInstanceE
00000000000383a0 l     F .text	0000000000000014              _ZN126_GLOBAL__N__dvs_p4_build_sw_rel_gpgpu_toolkit_r10.1_cuda_tools_cudart_cudart_etbl_tools_runtime_instance.cpp_00000000_CB5DA4D113etiGetVersionEPi
00000000000383c0 l     F .text	0000000000000014              _ZN126_GLOBAL__N__dvs_p4_build_sw_rel_gpgpu_toolkit_r10.1_cuda_tools_cudart_cudart_etbl_tools_runtime_instance.cpp_00000000_CB5DA4D117etiGetLinkageTypeEPi
00000000000383e0 l     F .text	0000000000000002              _Z41__static_initialization_and_destruction_0ii
0000000000038400 l     F .text	000000000000004f              _ZN126_GLOBAL__N__dvs_p4_build_sw_rel_gpgpu_toolkit_r10.1_cuda_tools_cudart_cudart_etbl_tools_runtime_instance.cpp_00000000_CB5DA4D124etiGetRuntimeErrorStringEjPPKcS2_
000000000031c710 l     O .bss	0000000000000001              _ZN6cudart7nothrowE
0000000000000000 l    df *ABS*	0000000000000000              tools_runtime_callbacks.cpp
0000000000038490 l     F .text	000000000000000c              _GLOBAL__I__ZN6cudart27g_etblToolsRuntimeCallbacksE
0000000000038450 l     F .text	000000000000002c              _ZN127_GLOBAL__N__dvs_p4_build_sw_rel_gpgpu_toolkit_r10.1_cuda_tools_cudart_cudart_etbl_tools_runtime_callbacks.cpp_00000000_1944650D32etiGetApiFunctionDescriptorTableEPiPPK35CUtoolsRuntimeFunctionDescriptor_st
0000000000038480 l     F .text	0000000000000002              _Z41__static_initialization_and_destruction_0ii
000000000031c714 l     O .bss	0000000000000001              _ZN6cudart7nothrowE
0000000000000000 l    df *ABS*	0000000000000000              generated_cuda_runtime_api_names.cpp
0000000000317f60 l     O .data.rel.ro	0000000000001ec0              _ZN6cudart20localDescriptorTableE
0000000000000000 l    df *ABS*	0000000000000000              generated_error_tables.cpp
0000000000319e20 l     O .data.rel.ro	0000000000000a20              _ZN6cudart19cudartErrorTableArrE
0000000000064520 l     O .rodata	00000000000001b0              _ZN6cudart20cudartErrorValuesArrE
0000000000000000 l    df *ABS*	0000000000000000              generated_cuda_runtime_api.cpp
00000000000384b0 l     F .text	000000000000000c              _GLOBAL__I_cudaDeviceReset
00000000000384a0 l     F .text	0000000000000002              _Z41__static_initialization_and_destruction_0ii
00000000000646e0 l     O .rodata	0000000000000019              _ZZ24cudaStreamGetCaptureInfoE12__FUNCTION__
00000000000648e0 l     O .rodata	0000000000000016              _ZZ21cudaStreamGetPriorityE12__FUNCTION__
0000000000064900 l     O .rodata	0000000000000013              _ZZ18cudaStreamGetFlagsE12__FUNCTION__
00000000000664f0 l     O .rodata	0000000000000013              _ZZ18cudaDeviceSetLimitE12__FUNCTION__
0000000000066510 l     O .rodata	0000000000000016              _ZZ21cudaDeviceSynchronizeE12__FUNCTION__
0000000000066530 l     O .rodata	0000000000000010              _ZZ15cudaDeviceResetE12__FUNCTION__
0000000000064ab0 l     O .rodata	000000000000000d              _ZZ12cudaMemset3DE12__FUNCTION__
0000000000064abd l     O .rodata	000000000000000d              _ZZ12cudaMemset2DE12__FUNCTION__
0000000000064aca l     O .rodata	000000000000000b              _ZZ10cudaMemsetE12__FUNCTION__
0000000000064ae0 l     O .rodata	0000000000000011              _ZZ16cudaMemcpy3DPeerE12__FUNCTION__
0000000000064af1 l     O .rodata	000000000000000d              _ZZ12cudaMemcpy3DE12__FUNCTION__
0000000000064b00 l     O .rodata	0000000000000019              _ZZ24cudaMemcpy2DArrayToArrayE12__FUNCTION__
0000000000064b20 l     O .rodata	0000000000000017              _ZZ22cudaMemcpyArrayToArrayE12__FUNCTION__
0000000000064b40 l     O .rodata	0000000000000016              _ZZ21cudaMemcpy2DFromArrayE12__FUNCTION__
0000000000064b60 l     O .rodata	0000000000000014              _ZZ19cudaMemcpyFromArrayE12__FUNCTION__
0000000000064b80 l     O .rodata	0000000000000014              _ZZ19cudaMemcpy2DToArrayE12__FUNCTION__
0000000000064ba0 l     O .rodata	0000000000000012              _ZZ17cudaMemcpyToArrayE12__FUNCTION__
0000000000064bb2 l     O .rodata	000000000000000d              _ZZ12cudaMemcpy2DE12__FUNCTION__
0000000000064bc0 l     O .rodata	0000000000000015              _ZZ20cudaMemcpyFromSymbolE12__FUNCTION__
0000000000064be0 l     O .rodata	0000000000000013              _ZZ18cudaMemcpyToSymbolE12__FUNCTION__
0000000000064bf3 l     O .rodata	000000000000000b              _ZZ10cudaMemcpyE12__FUNCTION__
0000000000064c00 l     O .rodata	0000000000000011              _ZZ16cudaGraphDestroyE12__FUNCTION__
0000000000064c20 l     O .rodata	0000000000000015              _ZZ20cudaGraphExecDestroyE12__FUNCTION__
0000000000064c60 l     O .rodata	0000000000000021              _ZZ32cudaGraphExecKernelNodeSetParamsE12__FUNCTION__
0000000000064c90 l     O .rodata	0000000000000015              _ZZ20cudaGraphInstantiateE12__FUNCTION__
0000000000064cb0 l     O .rodata	0000000000000015              _ZZ20cudaGraphDestroyNodeE12__FUNCTION__
0000000000064cd0 l     O .rodata	000000000000001c              _ZZ27cudaGraphRemoveDependenciesE12__FUNCTION__
0000000000064cf0 l     O .rodata	0000000000000019              _ZZ24cudaGraphAddDependenciesE12__FUNCTION__
0000000000064d10 l     O .rodata	000000000000001f              _ZZ30cudaGraphNodeGetDependentNodesE12__FUNCTION__
0000000000064d30 l     O .rodata	000000000000001d              _ZZ28cudaGraphNodeGetDependenciesE12__FUNCTION__
0000000000064d50 l     O .rodata	0000000000000012              _ZZ17cudaGraphGetEdgesE12__FUNCTION__
0000000000064d70 l     O .rodata	0000000000000016              _ZZ21cudaGraphGetRootNodesE12__FUNCTION__
0000000000064d90 l     O .rodata	0000000000000012              _ZZ17cudaGraphGetNodesE12__FUNCTION__
0000000000064db0 l     O .rodata	0000000000000015              _ZZ20cudaGraphNodeGetTypeE12__FUNCTION__
0000000000064dd0 l     O .rodata	0000000000000019              _ZZ24cudaGraphNodeFindInCloneE12__FUNCTION__
0000000000064de9 l     O .rodata	000000000000000f              _ZZ14cudaGraphCloneE12__FUNCTION__
0000000000064e00 l     O .rodata	0000000000000016              _ZZ21cudaGraphAddEmptyNodeE12__FUNCTION__
0000000000064e20 l     O .rodata	0000000000000020              _ZZ31cudaGraphChildGraphNodeGetGraphE12__FUNCTION__
0000000000064e40 l     O .rodata	000000000000001b              _ZZ26cudaGraphAddChildGraphNodeE12__FUNCTION__
0000000000064e60 l     O .rodata	000000000000001b              _ZZ26cudaGraphHostNodeSetParamsE12__FUNCTION__
0000000000064e80 l     O .rodata	000000000000001b              _ZZ26cudaGraphHostNodeGetParamsE12__FUNCTION__
0000000000064ea0 l     O .rodata	0000000000000015              _ZZ20cudaGraphAddHostNodeE12__FUNCTION__
0000000000064ec0 l     O .rodata	000000000000001d              _ZZ28cudaGraphMemsetNodeSetParamsE12__FUNCTION__
0000000000064ee0 l     O .rodata	000000000000001d              _ZZ28cudaGraphMemsetNodeGetParamsE12__FUNCTION__
0000000000064f00 l     O .rodata	0000000000000017              _ZZ22cudaGraphAddMemsetNodeE12__FUNCTION__
0000000000064f20 l     O .rodata	000000000000001d              _ZZ28cudaGraphMemcpyNodeSetParamsE12__FUNCTION__
0000000000064f40 l     O .rodata	000000000000001d              _ZZ28cudaGraphMemcpyNodeGetParamsE12__FUNCTION__
0000000000064f60 l     O .rodata	0000000000000017              _ZZ22cudaGraphAddMemcpyNodeE12__FUNCTION__
0000000000064f80 l     O .rodata	000000000000001d              _ZZ28cudaGraphKernelNodeSetParamsE12__FUNCTION__
0000000000064fa0 l     O .rodata	000000000000001d              _ZZ28cudaGraphKernelNodeGetParamsE12__FUNCTION__
0000000000064fc0 l     O .rodata	0000000000000017              _ZZ22cudaGraphAddKernelNodeE12__FUNCTION__
0000000000064fe0 l     O .rodata	0000000000000010              _ZZ15cudaGraphCreateE12__FUNCTION__
0000000000064ff0 l     O .rodata	0000000000000016              _ZZ21cudaRuntimeGetVersionE12__FUNCTION__
0000000000065010 l     O .rodata	0000000000000015              _ZZ20cudaDriverGetVersionE12__FUNCTION__
0000000000065040 l     O .rodata	0000000000000021              _ZZ32cudaGetSurfaceObjectResourceDescE12__FUNCTION__
0000000000065070 l     O .rodata	0000000000000019              _ZZ24cudaDestroySurfaceObjectE12__FUNCTION__
0000000000065090 l     O .rodata	0000000000000018              _ZZ23cudaCreateSurfaceObjectE12__FUNCTION__
00000000000650c0 l     O .rodata	0000000000000025              _ZZ36cudaGetTextureObjectResourceViewDescE12__FUNCTION__
0000000000065100 l     O .rodata	0000000000000020              _ZZ31cudaGetTextureObjectTextureDescE12__FUNCTION__
0000000000065120 l     O .rodata	0000000000000021              _ZZ32cudaGetTextureObjectResourceDescE12__FUNCTION__
0000000000065150 l     O .rodata	0000000000000019              _ZZ24cudaDestroyTextureObjectE12__FUNCTION__
0000000000065170 l     O .rodata	0000000000000018              _ZZ23cudaCreateTextureObjectE12__FUNCTION__
0000000000065190 l     O .rodata	0000000000000016              _ZZ21cudaCreateChannelDescE12__FUNCTION__
00000000000651b0 l     O .rodata	0000000000000013              _ZZ18cudaGetChannelDescE12__FUNCTION__
00000000000651d0 l     O .rodata	0000000000000018              _ZZ23cudaGetSurfaceReferenceE12__FUNCTION__
00000000000651f0 l     O .rodata	0000000000000017              _ZZ22cudaBindSurfaceToArrayE12__FUNCTION__
0000000000065210 l     O .rodata	0000000000000018              _ZZ23cudaGetTextureReferenceE12__FUNCTION__
0000000000065230 l     O .rodata	000000000000001e              _ZZ29cudaGetTextureAlignmentOffsetE12__FUNCTION__
0000000000065250 l     O .rodata	0000000000000012              _ZZ17cudaUnbindTextureE12__FUNCTION__
0000000000065280 l     O .rodata	0000000000000020              _ZZ31cudaBindTextureToMipmappedArrayE12__FUNCTION__
00000000000652a0 l     O .rodata	0000000000000017              _ZZ22cudaBindTextureToArrayE12__FUNCTION__
00000000000652c0 l     O .rodata	0000000000000012              _ZZ17cudaBindTexture2DE12__FUNCTION__
00000000000652e0 l     O .rodata	0000000000000010              _ZZ15cudaBindTextureE12__FUNCTION__
0000000000065300 l     O .rodata	000000000000002c              _ZZ43cudaGraphicsResourceGetMappedMipmappedArrayE12__FUNCTION__
0000000000065340 l     O .rodata	0000000000000026              _ZZ37cudaGraphicsSubResourceGetMappedArrayE12__FUNCTION__
0000000000065380 l     O .rodata	0000000000000025              _ZZ36cudaGraphicsResourceGetMappedPointerE12__FUNCTION__
0000000000065400 l     O .rodata	0000000000000020              _ZZ31cudaGraphicsResourceSetMapFlagsE12__FUNCTION__
0000000000065420 l     O .rodata	000000000000001f              _ZZ30cudaGraphicsUnregisterResourceE12__FUNCTION__
0000000000065440 l     O .rodata	000000000000001c              _ZZ27cudaDeviceDisablePeerAccessE12__FUNCTION__
0000000000065460 l     O .rodata	000000000000001b              _ZZ26cudaDeviceEnablePeerAccessE12__FUNCTION__
0000000000065480 l     O .rodata	0000000000000018              _ZZ23cudaDeviceCanAccessPeerE12__FUNCTION__
00000000000654a0 l     O .rodata	0000000000000019              _ZZ24cudaPointerGetAttributesE12__FUNCTION__
0000000000065500 l     O .rodata	000000000000001c              _ZZ27cudaMemcpyArrayToArray_ptdsE12__FUNCTION__
0000000000065520 l     O .rodata	0000000000000019              _ZZ24cudaMemcpyFromArray_ptdsE12__FUNCTION__
0000000000065540 l     O .rodata	0000000000000017              _ZZ22cudaMemcpyToArray_ptdsE12__FUNCTION__
0000000000065560 l     O .rodata	000000000000001a              _ZZ25cudaMemRangeGetAttributesE12__FUNCTION__
0000000000065580 l     O .rodata	0000000000000019              _ZZ24cudaMemRangeGetAttributeE12__FUNCTION__
0000000000065599 l     O .rodata	000000000000000e              _ZZ13cudaMemAdviseE12__FUNCTION__
00000000000655d0 l     O .rodata	0000000000000012              _ZZ17cudaGetSymbolSizeE12__FUNCTION__
00000000000655f0 l     O .rodata	0000000000000015              _ZZ20cudaGetSymbolAddressE12__FUNCTION__
0000000000065670 l     O .rodata	0000000000000012              _ZZ17cudaMemset3D_ptdsE12__FUNCTION__
0000000000065690 l     O .rodata	0000000000000012              _ZZ17cudaMemset2D_ptdsE12__FUNCTION__
00000000000656b0 l     O .rodata	0000000000000010              _ZZ15cudaMemset_ptdsE12__FUNCTION__
00000000000657a0 l     O .rodata	000000000000001a              _ZZ25cudaMemcpyFromSymbol_ptdsE12__FUNCTION__
00000000000657c0 l     O .rodata	0000000000000018              _ZZ23cudaMemcpyToSymbol_ptdsE12__FUNCTION__
00000000000657e0 l     O .rodata	000000000000001e              _ZZ29cudaMemcpy2DArrayToArray_ptdsE12__FUNCTION__
0000000000065800 l     O .rodata	000000000000001b              _ZZ26cudaMemcpy2DFromArray_ptdsE12__FUNCTION__
0000000000065820 l     O .rodata	0000000000000019              _ZZ24cudaMemcpy2DToArray_ptdsE12__FUNCTION__
0000000000065840 l     O .rodata	0000000000000012              _ZZ17cudaMemcpy2D_ptdsE12__FUNCTION__
0000000000065852 l     O .rodata	000000000000000f              _ZZ14cudaMemcpyPeerE12__FUNCTION__
0000000000065870 l     O .rodata	0000000000000010              _ZZ15cudaMemcpy_ptdsE12__FUNCTION__
0000000000065880 l     O .rodata	0000000000000011              _ZZ16cudaArrayGetInfoE12__FUNCTION__
0000000000065891 l     O .rodata	000000000000000f              _ZZ14cudaMemGetInfoE12__FUNCTION__
00000000000658e0 l     O .rodata	0000000000000016              _ZZ21cudaMemcpy3DPeer_ptdsE12__FUNCTION__
0000000000065900 l     O .rodata	0000000000000012              _ZZ17cudaMemcpy3D_ptdsE12__FUNCTION__
0000000000065920 l     O .rodata	000000000000001b              _ZZ26cudaGetMipmappedArrayLevelE12__FUNCTION__
0000000000065940 l     O .rodata	0000000000000019              _ZZ24cudaMallocMipmappedArrayE12__FUNCTION__
0000000000065960 l     O .rodata	0000000000000012              _ZZ17cudaMalloc3DArrayE12__FUNCTION__
0000000000065972 l     O .rodata	000000000000000d              _ZZ12cudaMalloc3DE12__FUNCTION__
0000000000065980 l     O .rodata	0000000000000011              _ZZ16cudaHostGetFlagsE12__FUNCTION__
00000000000659a0 l     O .rodata	0000000000000019              _ZZ24cudaHostGetDevicePointerE12__FUNCTION__
00000000000659c0 l     O .rodata	0000000000000013              _ZZ18cudaHostUnregisterE12__FUNCTION__
00000000000659e0 l     O .rodata	0000000000000011              _ZZ16cudaHostRegisterE12__FUNCTION__
00000000000659f1 l     O .rodata	000000000000000e              _ZZ13cudaHostAllocE12__FUNCTION__
0000000000065a00 l     O .rodata	0000000000000017              _ZZ22cudaFreeMipmappedArrayE12__FUNCTION__
0000000000065a17 l     O .rodata	000000000000000e              _ZZ13cudaFreeArrayE12__FUNCTION__
0000000000065a25 l     O .rodata	000000000000000d              _ZZ12cudaFreeHostE12__FUNCTION__
0000000000065a32 l     O .rodata	0000000000000009              _ZZ8cudaFreeE12__FUNCTION__
0000000000065a40 l     O .rodata	0000000000000010              _ZZ15cudaMallocArrayE12__FUNCTION__
0000000000065a50 l     O .rodata	0000000000000010              _ZZ15cudaMallocPitchE12__FUNCTION__
0000000000065a60 l     O .rodata	000000000000000f              _ZZ14cudaMallocHostE12__FUNCTION__
0000000000065a6f l     O .rodata	000000000000000b              _ZZ10cudaMallocE12__FUNCTION__
0000000000065a80 l     O .rodata	0000000000000012              _ZZ17cudaMallocManagedE12__FUNCTION__
0000000000065aa0 l     O .rodata	0000000000000037              _ZZ54cudaOccupancyMaxActiveBlocksPerMultiprocessorWithFlagsE12__FUNCTION__
0000000000065ae0 l     O .rodata	000000000000002e              _ZZ45cudaOccupancyMaxActiveBlocksPerMultiprocessorE12__FUNCTION__
0000000000065b30 l     O .rodata	0000000000000015              _ZZ20cudaSetDoubleForHostE12__FUNCTION__
0000000000065b50 l     O .rodata	0000000000000017              _ZZ22cudaSetDoubleForDeviceE12__FUNCTION__
0000000000065b70 l     O .rodata	0000000000000015              _ZZ20cudaFuncSetAttributeE12__FUNCTION__
0000000000065b90 l     O .rodata	0000000000000016              _ZZ21cudaFuncGetAttributesE12__FUNCTION__
0000000000065bb0 l     O .rodata	000000000000001b              _ZZ26cudaFuncSetSharedMemConfigE12__FUNCTION__
0000000000065bd0 l     O .rodata	0000000000000017              _ZZ22cudaFuncSetCacheConfigE12__FUNCTION__
0000000000065c00 l     O .rodata	0000000000000027              _ZZ38cudaLaunchCooperativeKernelMultiDeviceE12__FUNCTION__
0000000000065c40 l     O .rodata	0000000000000021              _ZZ32cudaLaunchCooperativeKernel_ptszE12__FUNCTION__
0000000000065c90 l     O .rodata	000000000000001d              _ZZ28cudaDestroyExternalSemaphoreE12__FUNCTION__
0000000000065d30 l     O .rodata	000000000000001c              _ZZ27cudaImportExternalSemaphoreE12__FUNCTION__
0000000000065d50 l     O .rodata	000000000000001a              _ZZ25cudaDestroyExternalMemoryE12__FUNCTION__
0000000000065d80 l     O .rodata	000000000000002a              _ZZ41cudaExternalMemoryGetMappedMipmappedArrayE12__FUNCTION__
0000000000065dc0 l     O .rodata	0000000000000022              _ZZ33cudaExternalMemoryGetMappedBufferE12__FUNCTION__
0000000000065df0 l     O .rodata	0000000000000019              _ZZ24cudaImportExternalMemoryE12__FUNCTION__
0000000000065e10 l     O .rodata	0000000000000015              _ZZ20cudaEventElapsedTimeE12__FUNCTION__
0000000000065e30 l     O .rodata	0000000000000011              _ZZ16cudaEventDestroyE12__FUNCTION__
0000000000065e50 l     O .rodata	0000000000000015              _ZZ20cudaEventSynchronizeE12__FUNCTION__
0000000000065e65 l     O .rodata	000000000000000f              _ZZ14cudaEventQueryE12__FUNCTION__
0000000000065ea0 l     O .rodata	0000000000000019              _ZZ24cudaEventCreateWithFlagsE12__FUNCTION__
0000000000065ec0 l     O .rodata	0000000000000010              _ZZ15cudaEventCreateE12__FUNCTION__
0000000000065f40 l     O .rodata	0000000000000024              _ZZ35cudaThreadExchangeStreamCaptureModeE12__FUNCTION__
0000000000066050 l     O .rodata	0000000000000018              _ZZ23cudaStreamGetFlags_ptszE12__FUNCTION__
0000000000066070 l     O .rodata	000000000000001b              _ZZ26cudaStreamGetPriority_ptszE12__FUNCTION__
0000000000066090 l     O .rodata	000000000000001d              _ZZ28cudaStreamCreateWithPriorityE12__FUNCTION__
00000000000660b0 l     O .rodata	000000000000001a              _ZZ25cudaStreamCreateWithFlagsE12__FUNCTION__
00000000000660d0 l     O .rodata	0000000000000011              _ZZ16cudaStreamCreateE12__FUNCTION__
00000000000660f0 l     O .rodata	0000000000000013              _ZZ18cudaGetDeviceFlagsE12__FUNCTION__
0000000000066110 l     O .rodata	0000000000000013              _ZZ18cudaSetDeviceFlagsE12__FUNCTION__
0000000000066130 l     O .rodata	0000000000000014              _ZZ19cudaSetValidDevicesE12__FUNCTION__
0000000000066144 l     O .rodata	000000000000000e              _ZZ13cudaGetDeviceE12__FUNCTION__
0000000000066152 l     O .rodata	000000000000000e              _ZZ13cudaSetDeviceE12__FUNCTION__
0000000000066160 l     O .rodata	0000000000000011              _ZZ16cudaChooseDeviceE12__FUNCTION__
0000000000066180 l     O .rodata	000000000000001a              _ZZ25cudaDeviceGetP2PAttributeE12__FUNCTION__
00000000000661a0 l     O .rodata	0000000000000017              _ZZ22cudaDeviceGetAttributeE12__FUNCTION__
00000000000661c0 l     O .rodata	0000000000000018              _ZZ23cudaGetDevicePropertiesE12__FUNCTION__
00000000000661e0 l     O .rodata	0000000000000013              _ZZ18cudaGetDeviceCountE12__FUNCTION__
0000000000066200 l     O .rodata	0000000000000013              _ZZ18cudaGetErrorStringE12__FUNCTION__
0000000000066220 l     O .rodata	0000000000000011              _ZZ16cudaGetErrorNameE12__FUNCTION__
0000000000066240 l     O .rodata	0000000000000014              _ZZ19cudaPeekAtLastErrorE12__FUNCTION__
0000000000066260 l     O .rodata	0000000000000011              _ZZ16cudaGetLastErrorE12__FUNCTION__
0000000000066280 l     O .rodata	0000000000000019              _ZZ24cudaThreadSetCacheConfigE12__FUNCTION__
00000000000662a0 l     O .rodata	0000000000000019              _ZZ24cudaThreadGetCacheConfigE12__FUNCTION__
00000000000662c0 l     O .rodata	0000000000000013              _ZZ18cudaThreadGetLimitE12__FUNCTION__
00000000000662e0 l     O .rodata	0000000000000013              _ZZ18cudaThreadSetLimitE12__FUNCTION__
0000000000066300 l     O .rodata	0000000000000016              _ZZ21cudaThreadSynchronizeE12__FUNCTION__
0000000000066316 l     O .rodata	000000000000000f              _ZZ14cudaThreadExitE12__FUNCTION__
0000000000066330 l     O .rodata	0000000000000016              _ZZ21cudaIpcCloseMemHandleE12__FUNCTION__
0000000000066350 l     O .rodata	0000000000000015              _ZZ20cudaIpcOpenMemHandleE12__FUNCTION__
0000000000066370 l     O .rodata	0000000000000014              _ZZ19cudaIpcGetMemHandleE12__FUNCTION__
0000000000066390 l     O .rodata	0000000000000017              _ZZ22cudaIpcOpenEventHandleE12__FUNCTION__
00000000000663b0 l     O .rodata	0000000000000016              _ZZ21cudaIpcGetEventHandleE12__FUNCTION__
00000000000663d0 l     O .rodata	0000000000000016              _ZZ21cudaDeviceGetPCIBusIdE12__FUNCTION__
00000000000663f0 l     O .rodata	0000000000000018              _ZZ23cudaDeviceGetByPCIBusIdE12__FUNCTION__
0000000000066410 l     O .rodata	000000000000001d              _ZZ28cudaDeviceSetSharedMemConfigE12__FUNCTION__
0000000000066430 l     O .rodata	000000000000001d              _ZZ28cudaDeviceGetSharedMemConfigE12__FUNCTION__
0000000000066450 l     O .rodata	0000000000000019              _ZZ24cudaDeviceSetCacheConfigE12__FUNCTION__
0000000000066480 l     O .rodata	0000000000000021              _ZZ32cudaDeviceGetStreamPriorityRangeE12__FUNCTION__
00000000000664b0 l     O .rodata	0000000000000019              _ZZ24cudaDeviceGetCacheConfigE12__FUNCTION__
00000000000664d0 l     O .rodata	0000000000000013              _ZZ18cudaDeviceGetLimitE12__FUNCTION__
0000000000066010 l     O .rodata	0000000000000019              _ZZ24cudaStreamWaitEvent_ptszE12__FUNCTION__
0000000000066030 l     O .rodata	0000000000000012              _ZZ17cudaStreamDestroyE12__FUNCTION__
0000000000065c70 l     O .rodata	0000000000000016              _ZZ21cudaLaunchKernel_ptszE12__FUNCTION__
0000000000065cc0 l     O .rodata	0000000000000025              _ZZ36cudaWaitExternalSemaphoresAsync_ptszE12__FUNCTION__
0000000000065d00 l     O .rodata	0000000000000027              _ZZ38cudaSignalExternalSemaphoresAsync_ptszE12__FUNCTION__
0000000000065e80 l     O .rodata	0000000000000015              _ZZ20cudaEventRecord_ptszE12__FUNCTION__
0000000000065ed0 l     O .rodata	000000000000001e              _ZZ29cudaStreamGetCaptureInfo_ptszE12__FUNCTION__
0000000000065ef0 l     O .rodata	000000000000001b              _ZZ26cudaStreamIsCapturing_ptszE12__FUNCTION__
0000000000065f10 l     O .rodata	000000000000001a              _ZZ25cudaStreamEndCapture_ptszE12__FUNCTION__
0000000000065f70 l     O .rodata	000000000000001c              _ZZ27cudaStreamBeginCapture_ptszE12__FUNCTION__
0000000000064700 l     O .rodata	0000000000000016              _ZZ21cudaStreamIsCapturingE12__FUNCTION__
0000000000065f90 l     O .rodata	000000000000001e              _ZZ29cudaStreamAttachMemAsync_ptszE12__FUNCTION__
0000000000065fb0 l     O .rodata	0000000000000015              _ZZ20cudaStreamQuery_ptszE12__FUNCTION__
0000000000065fd0 l     O .rodata	000000000000001b              _ZZ26cudaStreamSynchronize_ptszE12__FUNCTION__
0000000000065ff0 l     O .rodata	000000000000001b              _ZZ26cudaStreamAddCallback_ptszE12__FUNCTION__
0000000000064720 l     O .rodata	0000000000000015              _ZZ20cudaStreamEndCaptureE12__FUNCTION__
0000000000064740 l     O .rodata	0000000000000017              _ZZ22cudaStreamBeginCaptureE12__FUNCTION__
0000000000064760 l     O .rodata	0000000000000010              _ZZ15cudaGraphLaunchE12__FUNCTION__
0000000000064780 l     O .rodata	0000000000000020              _ZZ31cudaWaitExternalSemaphoresAsyncE12__FUNCTION__
00000000000647a0 l     O .rodata	0000000000000022              _ZZ33cudaSignalExternalSemaphoresAsyncE12__FUNCTION__
00000000000647d0 l     O .rodata	0000000000000015              _ZZ20cudaMemPrefetchAsyncE12__FUNCTION__
00000000000647f0 l     O .rodata	0000000000000013              _ZZ18cudaLaunchHostFuncE12__FUNCTION__
0000000000064810 l     O .rodata	000000000000001c              _ZZ27cudaLaunchCooperativeKernelE12__FUNCTION__
0000000000064830 l     O .rodata	0000000000000011              _ZZ16cudaLaunchKernelE12__FUNCTION__
0000000000064850 l     O .rodata	0000000000000016              _ZZ21cudaStreamSynchronizeE12__FUNCTION__
0000000000064870 l     O .rodata	0000000000000019              _ZZ24cudaStreamAttachMemAsyncE12__FUNCTION__
0000000000064890 l     O .rodata	0000000000000016              _ZZ21cudaStreamAddCallbackE12__FUNCTION__
00000000000648b0 l     O .rodata	0000000000000014              _ZZ19cudaStreamWaitEventE12__FUNCTION__
00000000000648d0 l     O .rodata	0000000000000010              _ZZ15cudaEventRecordE12__FUNCTION__
0000000000064920 l     O .rodata	0000000000000010              _ZZ15cudaStreamQueryE12__FUNCTION__
0000000000064930 l     O .rodata	0000000000000012              _ZZ17cudaMemset3DAsyncE12__FUNCTION__
0000000000064950 l     O .rodata	0000000000000012              _ZZ17cudaMemset2DAsyncE12__FUNCTION__
0000000000064970 l     O .rodata	0000000000000010              _ZZ15cudaMemsetAsyncE12__FUNCTION__
0000000000064980 l     O .rodata	0000000000000016              _ZZ21cudaMemcpy3DPeerAsyncE12__FUNCTION__
00000000000649a0 l     O .rodata	0000000000000012              _ZZ17cudaMemcpy3DAsyncE12__FUNCTION__
00000000000649c0 l     O .rodata	000000000000001b              _ZZ26cudaMemcpy2DFromArrayAsyncE12__FUNCTION__
00000000000649e0 l     O .rodata	0000000000000019              _ZZ24cudaMemcpyFromArrayAsyncE12__FUNCTION__
0000000000064a00 l     O .rodata	0000000000000019              _ZZ24cudaMemcpy2DToArrayAsyncE12__FUNCTION__
0000000000064a20 l     O .rodata	0000000000000017              _ZZ22cudaMemcpyToArrayAsyncE12__FUNCTION__
0000000000064a40 l     O .rodata	0000000000000012              _ZZ17cudaMemcpy2DAsyncE12__FUNCTION__
0000000000064a60 l     O .rodata	000000000000001a              _ZZ25cudaMemcpyFromSymbolAsyncE12__FUNCTION__
0000000000064a80 l     O .rodata	0000000000000018              _ZZ23cudaMemcpyToSymbolAsyncE12__FUNCTION__
0000000000064aa0 l     O .rodata	0000000000000010              _ZZ15cudaMemcpyAsyncE12__FUNCTION__
0000000000064c40 l     O .rodata	0000000000000015              _ZZ20cudaGraphLaunch_ptszE12__FUNCTION__
00000000000653b0 l     O .rodata	000000000000001b              _ZZ26cudaGraphicsUnmapResourcesE12__FUNCTION__
00000000000653d0 l     O .rodata	0000000000000019              _ZZ24cudaGraphicsMapResourcesE12__FUNCTION__
00000000000654c0 l     O .rodata	000000000000001e              _ZZ29cudaMemcpyFromArrayAsync_ptszE12__FUNCTION__
00000000000654e0 l     O .rodata	000000000000001c              _ZZ27cudaMemcpyToArrayAsync_ptszE12__FUNCTION__
00000000000655b0 l     O .rodata	000000000000001a              _ZZ25cudaMemPrefetchAsync_ptszE12__FUNCTION__
0000000000065610 l     O .rodata	0000000000000017              _ZZ22cudaMemset3DAsync_ptszE12__FUNCTION__
0000000000065630 l     O .rodata	0000000000000017              _ZZ22cudaMemset2DAsync_ptszE12__FUNCTION__
0000000000065650 l     O .rodata	0000000000000015              _ZZ20cudaMemsetAsync_ptszE12__FUNCTION__
00000000000656c0 l     O .rodata	000000000000001f              _ZZ30cudaMemcpyFromSymbolAsync_ptszE12__FUNCTION__
00000000000656e0 l     O .rodata	000000000000001d              _ZZ28cudaMemcpyToSymbolAsync_ptszE12__FUNCTION__
0000000000065700 l     O .rodata	0000000000000020              _ZZ31cudaMemcpy2DFromArrayAsync_ptszE12__FUNCTION__
0000000000065720 l     O .rodata	000000000000001e              _ZZ29cudaMemcpy2DToArrayAsync_ptszE12__FUNCTION__
0000000000065740 l     O .rodata	0000000000000017              _ZZ22cudaMemcpy2DAsync_ptszE12__FUNCTION__
0000000000065760 l     O .rodata	0000000000000014              _ZZ19cudaMemcpyPeerAsyncE12__FUNCTION__
0000000000065780 l     O .rodata	0000000000000015              _ZZ20cudaMemcpyAsync_ptszE12__FUNCTION__
00000000000658a0 l     O .rodata	000000000000001b              _ZZ26cudaMemcpy3DPeerAsync_ptszE12__FUNCTION__
00000000000658c0 l     O .rodata	0000000000000017              _ZZ22cudaMemcpy3DAsync_ptszE12__FUNCTION__
0000000000065b10 l     O .rodata	0000000000000018              _ZZ23cudaLaunchHostFunc_ptszE12__FUNCTION__
000000000031c718 l     O .bss	0000000000000001              _ZN6cudart7nothrowE
0000000000000000 l    df *ABS*	0000000000000000              generated_cuda_profiler_api.cpp
00000000000562c0 l     F .text	000000000000000c              _GLOBAL__I_cudaProfilerInitialize
00000000000562b0 l     F .text	0000000000000002              _Z41__static_initialization_and_destruction_0ii
0000000000066580 l     O .rodata	0000000000000017              _ZZ22cudaProfilerInitializeE12__FUNCTION__
0000000000066540 l     O .rodata	0000000000000011              _ZZ16cudaProfilerStopE12__FUNCTION__
0000000000066560 l     O .rodata	0000000000000012              _ZZ17cudaProfilerStartE12__FUNCTION__
000000000031c71c l     O .bss	0000000000000001              _ZN6cudart7nothrowE
0000000000000000 l    df *ABS*	0000000000000000              generated_cuda_gl_interop.cpp
00000000000567c0 l     F .text	000000000000000c              _GLOBAL__I_cudaGLGetDevices
00000000000567b0 l     F .text	0000000000000002              _Z41__static_initialization_and_destruction_0ii
00000000000666a0 l     O .rodata	000000000000001d              _ZZ28cudaGraphicsGLRegisterBufferE12__FUNCTION__
00000000000666c0 l     O .rodata	000000000000001c              _ZZ27cudaGraphicsGLRegisterImageE12__FUNCTION__
00000000000666e0 l     O .rodata	0000000000000011              _ZZ16cudaGLGetDevicesE12__FUNCTION__
00000000000665c0 l     O .rodata	000000000000001b              _ZZ26cudaGLMapBufferObjectAsyncE12__FUNCTION__
00000000000665e0 l     O .rodata	000000000000001e              _ZZ29cudaGLSetBufferObjectMapFlagsE12__FUNCTION__
0000000000066600 l     O .rodata	000000000000001d              _ZZ28cudaGLUnregisterBufferObjectE12__FUNCTION__
0000000000066620 l     O .rodata	0000000000000018              _ZZ23cudaGLUnmapBufferObjectE12__FUNCTION__
0000000000066640 l     O .rodata	0000000000000016              _ZZ21cudaGLMapBufferObjectE12__FUNCTION__
0000000000066660 l     O .rodata	000000000000001b              _ZZ26cudaGLRegisterBufferObjectE12__FUNCTION__
0000000000066680 l     O .rodata	0000000000000012              _ZZ17cudaGLSetGLDeviceE12__FUNCTION__
00000000000665a0 l     O .rodata	000000000000001d              _ZZ28cudaGLUnmapBufferObjectAsyncE12__FUNCTION__
000000000031c720 l     O .bss	0000000000000001              _ZN6cudart7nothrowE
0000000000000000 l    df *ABS*	0000000000000000              generated_cuda_egl_interop.cpp
0000000000057b40 l     F .text	000000000000000c              _GLOBAL__I_cudaGraphicsEGLRegisterImage
0000000000057b30 l     F .text	0000000000000002              _Z41__static_initialization_and_destruction_0ii
0000000000066700 l     O .rodata	000000000000001b              _ZZ26cudaEventCreateFromEGLSyncE12__FUNCTION__
00000000000668c0 l     O .rodata	0000000000000026              _ZZ37cudaEGLStreamConsumerConnectWithFlagsE12__FUNCTION__
00000000000668f0 l     O .rodata	000000000000001d              _ZZ28cudaEGLStreamConsumerConnectE12__FUNCTION__
0000000000066910 l     O .rodata	000000000000001d              _ZZ28cudaGraphicsEGLRegisterImageE12__FUNCTION__
0000000000066720 l     O .rodata	0000000000000026              _ZZ37cudaGraphicsResourceGetMappedEglFrameE12__FUNCTION__
0000000000066760 l     O .rodata	0000000000000021              _ZZ32cudaEGLStreamProducerReturnFrameE12__FUNCTION__
00000000000667a0 l     O .rodata	0000000000000022              _ZZ33cudaEGLStreamProducerPresentFrameE12__FUNCTION__
00000000000667e0 l     O .rodata	0000000000000020              _ZZ31cudaEGLStreamProducerDisconnectE12__FUNCTION__
0000000000066800 l     O .rodata	000000000000001d              _ZZ28cudaEGLStreamProducerConnectE12__FUNCTION__
0000000000066820 l     O .rodata	0000000000000022              _ZZ33cudaEGLStreamConsumerReleaseFrameE12__FUNCTION__
0000000000066860 l     O .rodata	0000000000000022              _ZZ33cudaEGLStreamConsumerAcquireFrameE12__FUNCTION__
00000000000668a0 l     O .rodata	0000000000000020              _ZZ31cudaEGLStreamConsumerDisconnectE12__FUNCTION__
000000000031c724 l     O .bss	0000000000000001              _ZN6cudart7nothrowE
0000000000000000 l    df *ABS*	0000000000000000              generated_cuda_vdpau_interop.cpp
00000000000591f0 l     F .text	000000000000000c              _GLOBAL__I_cudaVDPAUGetDevice
00000000000591e0 l     F .text	0000000000000002              _Z41__static_initialization_and_destruction_0ii
00000000000669d0 l     O .rodata	0000000000000013              _ZZ18cudaVDPAUGetDeviceE12__FUNCTION__
0000000000066940 l     O .rodata	0000000000000027              _ZZ38cudaGraphicsVDPAURegisterOutputSurfaceE12__FUNCTION__
0000000000066980 l     O .rodata	0000000000000026              _ZZ37cudaGraphicsVDPAURegisterVideoSurfaceE12__FUNCTION__
00000000000669b0 l     O .rodata	0000000000000018              _ZZ23cudaVDPAUSetVDPAUDeviceE12__FUNCTION__
000000000031c728 l     O .bss	0000000000000001              _ZN6cudart7nothrowE
0000000000000000 l    df *ABS*	0000000000000000              cuosLinux.cpp
000000000031c750 l     O .bss	0000000000000008              _ZN6cudart24cuosMinProcessorMaskSizeE
000000000005c030 l     F .text	00000000000005ed              _ZN6cudart11getNumaInfoEv
000000000031c730 l     O .bss	0000000000000004              _ZN6cudart22getNumaInfoOnceControlE
000000000031c740 l     O .bss	0000000000000008              _ZN6cudart19allowedNumaNodeMaskE
000000000031c748 l     O .bss	0000000000000008              _ZN6cudart20numPossibleNumaNodesE
0000000000059a70 l     F .text	000000000000035f              _ZN6cudart15getMaskFromFileEPKcS1_PPcPm
00000000000669f0 l     O .rodata	0000000000000011              _ZZN6cudart26cuosGetLinuxNamespaceInodeEPKcPKiPxE28NAMESPACE_PATH_FORMAT_STRING
000000000005a900 l     F .text	00000000000000ae              _ZN6cudart8validateEP11sockaddr_unPjPKvm
000000000031c780 l     O .bss	0000000000000008              _ZN6cudart6_pipe2E
000000000031b044 l     O .data	0000000000000004              _ZN6cudart24cuosLinuxBestSystemClockE
000000000031c758 l     O .bss	0000000000000008              _ZN6cudart13_sched_getcpuE
000000000031c760 l     O .bss	0000000000000008              _ZN6cudart23_pthread_setaffinity_npE
000000000031c768 l     O .bss	0000000000000008              _ZN6cudart23_pthread_getaffinity_npE
000000000031c770 l     O .bss	0000000000000008              _ZN6cudart16cuosMinProcessVaE
0000000000066a01 l     O .rodata	0000000000000009              _ZN6cudart12CRED_CONTROLE
0000000000066a0a l     O .rodata	0000000000000009              _ZN6cudart10FD_CONTROLE
000000000005be10 l     F .text	0000000000000030              __tcf_4
000000000031c7b0 l     O .bss	0000000000000010              _ZZN6cudart8cuosInitEvE14__sched_getcpu
000000000005be40 l     F .text	0000000000000030              __tcf_0
000000000031c7f0 l     O .bss	0000000000000010              _ZZN6cudart8cuosInitEvE9__accept4
000000000005be70 l     F .text	0000000000000030              __tcf_1
000000000031c7e0 l     O .bss	0000000000000010              _ZZN6cudart8cuosInitEvE7__pipe2
000000000005bea0 l     F .text	0000000000000030              __tcf_2
000000000031c7d0 l     O .bss	0000000000000010              _ZZN6cudart8cuosInitEvE24__pthread_setaffinity_np
000000000005bed0 l     F .text	0000000000000030              __tcf_3
000000000031c7c0 l     O .bss	0000000000000010              _ZZN6cudart8cuosInitEvE24__pthread_getaffinity_np
000000000031c738 l     O .bss	0000000000000008              _ZN6cudart22processorToNumaNodeMapE
000000000031c788 l     O .bss	0000000000000008              _ZGVZN6cudart8cuosInitEvE9__accept4
000000000031c790 l     O .bss	0000000000000008              _ZGVZN6cudart8cuosInitEvE7__pipe2
000000000031c798 l     O .bss	0000000000000008              _ZGVZN6cudart8cuosInitEvE24__pthread_setaffinity_np
000000000031c7a0 l     O .bss	0000000000000008              _ZGVZN6cudart8cuosInitEvE24__pthread_getaffinity_np
000000000031c7a8 l     O .bss	0000000000000008              _ZGVZN6cudart8cuosInitEvE14__sched_getcpu
000000000031c778 l     O .bss	0000000000000008              _ZN6cudart8_accept4E
0000000000066a13 l     O .rodata	0000000000000009              _ZN6cudart13HELLO_CONTROLE
0000000000000000 l    df *ABS*	0000000000000000              cuos_common_posix.cpp
000000000031c814 l     O .bss	0000000000000004              _ZZN6cudart13cuosShmCreateEPKcmE5shmid
000000000005e4f0 l     F .text	00000000000000ff              _ZN6cudart20cuosLockFileInternalEP8_IO_FILEji
000000000005e690 l     F .text	0000000000000005              _ZN6cudart10cuosRmNodeEPKcPK4statiP3FTW
000000000005f650 l     F .text	0000000000000059              _ZN6cudart24cuosPosixThreadStartFuncEPv
000000000031c848 l     O .bss	0000000000000008              _ZGVZN6cudart13cuosPosixInitEvE7__pipe2
000000000031c850 l     O .bss	0000000000000010              _ZZN6cudart13cuosPosixInitEvE7__pipe2
000000000031c800 l     O .bss	0000000000000008              _ZN6cudart6_pipe2E
000000000005f4d0 l     F .text	0000000000000030              __tcf_0
000000000031c810 l     O .bss	0000000000000004              _ZZN6cudart11cuosShmOpenEPKcE5shmid
000000000005f530 l     F .text	000000000000000e              _ZN6cudart42cuosVirtualReserveInRangeBug1778973WARInitEv
000000000031c820 l     O .bss	0000000000000028              _ZN6cudart43cuosVirtualReserveInRangeBug1778973WARMutexE
000000000031c808 l     O .bss	0000000000000008              _ZN6cudart13cuosShmSerialE
000000000031c818 l     O .bss	0000000000000004              _ZN6cudart53cuosVirtualReserveInRangeBug1778973WARInitOnceControlE
0000000000000000 l    df *ABS*	0000000000000000              cuos_utils.cpp
0000000000000000 l    df *ABS*	0000000000000000              crtstuff.c
0000000000116a44 l     O .eh_frame	0000000000000000              __FRAME_END__
0000000000000000 l    df *ABS*	0000000000000000              
0000000000012ca0 l     F .text	00000000000000bf              _ZN6cudart31cudaApiGraphMemcpyNodeGetParamsEP14CUgraphNode_stP17cudaMemcpy3DParms
0000000000013c00 l     F .text	0000000000000068              _ZN6cudart31cudaApiGLUnregisterBufferObjectEj
0000000000012980 l     F .text	0000000000000099              _ZN6cudart24cudaApiGraphAddEmptyNodeEPP14CUgraphNode_stP10CUgraph_stPKS1_m
0000000000035070 l     F .text	000000000000033a              _ZN6cudart11arrayHelper12copyToDeviceE17CUmemorytype_enumPK9cudaArraymmPcmmP11CUstream_stbb
0000000000034100 l     F .text	000000000000009e              _ZN6cudart11arrayHelper12setupTextureEPK9cudaArrayP11CUtexref_st
000000000000db40 l     F .text	0000000000000198              _ZN6cudart21cudaApiGetErrorStringE9cudaError
00000000000363c0 l     F .text	0000000000000023              _ZN6cudart12driverHelper17getCurrentContextEPP8CUctx_st
000000000002ffe0 l     F .text	00000000000002e0              _ZN6cudart19contextStateManager33notifyContextStatesOfModuleUnloadEPNS_12globalModuleE
000000000005b390 l     F .text	000000000000000d              _ZN6cudart24cuosInterlockedDecrementEPVj
0000000000016910 l     F .text	0000000000000057              _ZN6cudart27cudaApiThreadSetCacheConfigE13cudaFuncCache
000000000002e400 l     F .text	0000000000000acd              _ZN6cudart12contextState9loadCubinEPbPNS_12globalModuleE
0000000000023370 l     F .text	00000000000000c8              _ZN6cudart11globalState16initializeDriverEv
0000000000018fc0 l     F .text	00000000000000dd              _ZN6cudart34cudaApiMemcpy2DFromArrayAsync_ptszEPvmPK9cudaArraymmmm14cudaMemcpyKindP11CUstream_st
0000000000017a20 l     F .text	000000000000008f              _ZN6cudart16cudaApiSetDeviceEi
0000000000010100 l     F .text	000000000000008a              _ZN6cudart18cudaApiMemset_ptdsEPvim
0000000000035d10 l     F .text	0000000000000078              _ZN6cudart12driverHelper9memsetPtrEPcimP11CUstream_stbb
0000000000028550 l     F .text	0000000000000459              _ZN6cudart12contextState20markChangeModuleLoadEPNS_12globalModuleE
000000000005b520 l     F .text	0000000000000018              _ZN6cudart14cuosResetTimerEPNS_9cuostimerE
0000000000012340 l     F .text	00000000000000a9              _ZN6cudart23cudaApiGraphInstantiateEPP14CUgraphExec_stP10CUgraph_stPP14CUgraphNode_stPcm
0000000000012a20 l     F .text	0000000000000079              _ZN6cudart34cudaApiGraphChildGraphNodeGetGraphEP14CUgraphNode_stPP10CUgraph_st
00000000000346a0 l     F .text	00000000000001bd              _ZN6cudart11arrayHelper14copyToDevice2DE17CUmemorytype_enumPK9cudaArraymmPcmmmmP11CUstream_stbb
00000000000108c0 l     F .text	00000000000000dd              _ZN6cudart29cudaApiMemcpy2DFromArrayAsyncEPvmPK9cudaArraymmmm14cudaMemcpyKindP11CUstream_st
000000000001b480 l     F .text	00000000000001e3              _ZN6cudart25cudaApiGraphAddMemcpyNodeEPP14CUgraphNode_stP10CUgraph_stPKS1_mPK17cudaMemcpy3DParms
00000000000302c0 l     F .text	00000000000002e0              _ZN6cudart19contextStateManager31notifyContextStatesOfModuleLoadEPNS_12globalModuleE
000000000001b1c0 l     F .text	000000000000000b              _ZN6cudart26cudaApiMemcpyToSymbol_ptdsEPKvS1_mm14cudaMemcpyKind
0000000000019630 l     F .text	00000000000000b8              _ZN6cudart25cudaApiMemset2DAsync_ptszEPvmimmP11CUstream_st
00000000000378a0 l     F .text	00000000000000dd              _ZN6cudart12driverHelper13memcpyToArrayEP9cudaArraymmPKcm14cudaMemcpyKindP11CUstream_stbb
0000000000033cb0 l     F .text	000000000000005f              _ZN6cudart11arrayHelper15bytesPerElementEPmi19CUarray_format_enum
00000000000107f0 l     F .text	00000000000000c2              _ZN6cudart30cudaApiMemcpyArrayToArray_ptdsEP9cudaArraymmPKS0_mmm14cudaMemcpyKind
000000000001b1d0 l     F .text	0000000000000008              _ZN6cudart21cudaApiMemcpyToSymbolEPKvS1_mm14cudaMemcpyKind
000000000001d740 l     F .text	000000000000000c              _ZN6cudart19globalStateAutoLockC1Ev
00000000000127e0 l     F .text	0000000000000089              _ZN6cudart20cudaApiGraphGetNodesEP10CUgraph_stPP14CUgraphNode_stPm
000000000001a720 l     F .text	000000000000003c              _ZN6cudart30cudaApiLaunchCooperativeKernelEPKv4dim3S2_PPvmP11CUstream_st
0000000000036370 l     F .text	0000000000000046              _ZN6cudart12driverHelper9mallocPtrEmPPv
0000000000011f50 l     F .text	000000000000000b              _ZN6cudart41cudaApiSignalExternalSemaphoresAsync_ptszEPKP22CUexternalSemaphore_stPK33cudaExternalSemaphoreSignalParamsjP11CUstream_st
0000000000019d20 l     F .text	0000000000000069              _ZN6cudart15cudaApiMemcpy3DEPK17cudaMemcpy3DParms
000000000001b780 l     F .text	000000000000010d              _ZN6cudart31cudaApiGraphKernelNodeSetParamsEP14CUgraphNode_stPK20cudaKernelNodeParams
000000000002eed0 l     F .text	0000000000000289              _ZN6cudart12contextState11bindTextureEPK16textureReferencePK18cudaMipmappedArrayPK21cudaChannelFormatDesc
0000000000011750 l     F .text	0000000000000091              _ZN6cudart27cudaApiHostGetDevicePointerEPPvS0_j
00000000000169d0 l     F .text	0000000000000059              _ZN6cudart27cudaApiDeviceGetCacheConfigEP13cudaFuncCache
000000000000db30 l     F .text	0000000000000003              _ZN6cudart14getCudartErrorE14cudaError_enum
0000000000036690 l     F .text	0000000000000318              _ZN6cudart12driverHelper27getDriverResDescFromResDescEP21CUDA_RESOURCE_DESC_stPK16cudaResourceDescP20CUDA_TEXTURE_DESC_stPK15cudaTextureDescP26CUDA_RESOURCE_VIEW_DESC_stPK20cudaResourceViewDesc
0000000000019170 l     F .text	00000000000000c2              _ZN6cudart32cudaApiMemcpyFromArrayAsync_ptszEPvPK9cudaArraymmm14cudaMemcpyKindP11CUstream_st
000000000001aa40 l     F .text	00000000000000a5              _ZN6cudart29cudaApiFuncSetSharedMemConfigEPKv19cudaSharedMemConfig
00000000000188f0 l     F .text	00000000000000e6              _ZN6cudart23cudaApiGraphNodeGetTypeEP14CUgraphNode_stP17cudaGraphNodeType
000000000000ffa0 l     F .text	00000000000000b1              _ZN6cudart15cudaApiMemset2DEPvmimm
00000000000306e0 l     F .text	00000000000009ae              _ZN6cudart19contextStateManager34notifyContextManagerOfModuleUnloadEPNS_12contextStateERNS_3mapIPNS_12globalModuleEPNS_6moduleEEE
000000000000fd80 l     F .text	0000000000000154              _ZN6cudart15cudaApiMemset3DE14cudaPitchedPtri10cudaExtent
000000000010a4e0 l       .eh_frame_hdr	0000000000000000              __GNU_EH_FRAME_HDR
000000000000e5f0 l     F .text	000000000000000a              _ZN6cudart30cudaApiStreamBeginCapture_ptszEP11CUstream_st21cudaStreamCaptureMode
0000000000014ed0 l     F .text	0000000000000155              _ZN6cudart19cudaApiArrayGetInfoEP21cudaChannelFormatDescP10cudaExtentPjP9cudaArray
0000000000010b50 l     F .text	00000000000000c1              _ZN6cudart22cudaApiMemcpyFromArrayEPvPK9cudaArraymmm14cudaMemcpyKind
00000000000121b0 l     F .text	0000000000000021              _ZN6cudart19cudaApiGetLastErrorEv
0000000000024b60 l     F .text	0000000000000007              _ZN6cudart11threadState15peekAtLastErrorEv
0000000000017920 l     F .text	00000000000000ff              _ZN6cudart21cudaApiSetDeviceFlagsEj
0000000000014cd0 l     F .text	0000000000000079              _ZN6cudart31cudaApiEGLStreamConsumerConnectEPP24CUeglStreamConnection_stPv
000000000005b3a0 l     F .text	000000000000000f              _ZN6cudart26cuosInterlockedIncrement64EPVy
0000000000014e80 l     F .text	0000000000000044              _ZN6cudart16cudaApiMemAdviseEPKvm16cudaMemoryAdvisei
0000000000038260 l     F .text	000000000000004f              _ZN6cudart14getThreadStateEPPNS_11threadStateE
0000000000012de0 l     F .text	0000000000000051              _ZN6cudart20cudaApiProfilerStartEv
00000000000135c0 l     F .text	00000000000000b3              _ZN6cudart40cudaApiGraphicsSubResourceGetMappedArrayEPP9cudaArrayP20cudaGraphicsResourcejj
000000000001a2c0 l     F .text	0000000000000092              _ZN6cudart26cudaApiGetTextureReferenceEPPK16textureReferencePKv
0000000000015590 l     F .text	000000000000014f              _ZN6cudart30cudaApiImportExternalSemaphoreEPP22CUexternalSemaphore_stPK31cudaExternalSemaphoreHandleDesc
0000000000050b60 l     F .text	00000000000002e2              cudaLaunchKernel
0000000000012220 l     F .text	0000000000000059              _ZN6cudart38cudaApiThreadExchangeStreamCaptureModeEP21cudaStreamCaptureMode
0000000000026000 l     F .text	0000000000000031              _ZN6cudart12contextState19getTextureReferenceEPPK16textureReferencePKv
0000000000013000 l     F .text	00000000000000d0              _ZN6cudart26cudaApiCreateSurfaceObjectEPyPK16cudaResourceDesc
00000000000341a0 l     F .text	000000000000018e              _ZN6cudart11arrayHelper13copyToArray2DEPK9cudaArraymmPS1_mmmmb
0000000000015530 l     F .text	0000000000000059              _ZN6cudart31cudaApiDestroyExternalSemaphoreEP22CUexternalSemaphore_st
0000000000046750 l     F .text	0000000000000192              cudaFree
0000000000013520 l     F .text	0000000000000096              _ZN6cudart46cudaApiGraphicsResourceGetMappedMipmappedArrayEPP18cudaMipmappedArrayP20cudaGraphicsResource
000000000001aba0 l     F .text	0000000000000077              _ZN6cudart20cudaApiGetSymbolSizeEPmPKv
0000000000014d50 l     F .text	0000000000000087              _ZN6cudart31cudaApiGraphicsEGLRegisterImageEPP20cudaGraphicsResourcePvj
00000000000261f0 l     F .text	0000000000000038              _ZN6cudart12contextState11bindSurfaceEPK16surfaceReferencePK9cudaArrayPK21cudaChannelFormatDesc
0000000000035b30 l     F .text	0000000000000075              _ZN6cudart11arrayHelper14getElementSizeEPmP9cudaArray
0000000000011550 l     F .text	00000000000000b7              _ZN6cudart15cudaApiMalloc3DEP14cudaPitchedPtr10cudaExtent
00000000000212d0 l     F .text	00000000000002f0              _ZN6cudart11globalState24getModuleByEntryFunctionEPKv
0000000000012750 l     F .text	0000000000000089              _ZN6cudart24cudaApiGraphGetRootNodesEP10CUgraph_stPP14CUgraphNode_stPm
0000000000036d30 l     F .text	00000000000003b7              _ZN6cudart12driverHelper23toDriverMemCopy3DParamsEPK17cudaMemcpy3DParmsPNS_6deviceES5_P16CUDA_MEMCPY3D_st
000000000002fc00 l     F .text	000000000000003b              _ZN6cudart19contextStateManager25getLazyInitPrimaryContextEPP8CUctx_stPNS_6deviceE
0000000000016a30 l     F .text	0000000000000059              _ZN6cudart27cudaApiThreadGetCacheConfigEP13cudaFuncCache
0000000000034d40 l     F .text	0000000000000321              _ZN6cudart11arrayHelper12copyFromHostEPK9cudaArraymmPKcmP11CUstream_stbb
000000000002d840 l     F .text	0000000000000bb5              _ZN6cudart12contextState13createTextureERKNS_11textureTempEPNS_12globalModuleE
000000000002fef0 l     F .text	00000000000000e1              _ZN6cudart19contextStateManager6createEPPS0_PNS_11globalStateEPNS_9deviceMgrE
0000000000016d50 l     F .text	00000000000001fa              _ZN6cudart24cudaApiFuncGetAttributesEP18cudaFuncAttributesPKv
000000000000e530 l     F .text	000000000000000a              _ZN6cudart28cudaApiStreamEndCapture_ptszEP11CUstream_stPP10CUgraph_st
0000000000019b60 l     F .text	000000000000009b              _ZN6cudart23cudaApiMemsetAsync_ptszEPvimP11CUstream_st
0000000000019400 l     F .text	00000000000000c2              _ZN6cudart30cudaApiMemcpyToArrayAsync_ptszEP9cudaArraymmPKvm14cudaMemcpyKindP11CUstream_st
0000000000025b80 l     F .text	0000000000000107              _ZN6cudart12contextStateC1EPNS_6deviceEP8CUctx_st
000000000000e7b0 l     F .text	0000000000000008              _ZN6cudart23cudaApiMemPrefetchAsyncEPKvmiP11CUstream_st
0000000000015d70 l     F .text	000000000000008f              _ZN6cudart27cudaApiStreamWaitEvent_ptszEP11CUstream_stP10CUevent_stj
000000000005ab70 l     F .text	000000000000011b              _ZN6cudart17cuosSemaphoreWaitEP5sem_tj
0000000000025d80 l     F .text	00000000000000c6              _ZN6cudart12contextState13getSymbolSizeEPmPKv
000000000001daf0 l     F .text	00000000000000db              _ZN6cudart11globalState11registerVarEPNS_12globalModuleEPcS3_PKcbmbb
000000000005ec20 l     F .text	0000000000000005              _ZN6cudart25cuosDeleteCriticalSectionEP15pthread_mutex_t
0000000000025e50 l     F .text	0000000000000092              _ZN6cudart12contextState16getSymbolAddressEPPvPKv
0000000000014e30 l     F .text	0000000000000044              _ZN6cudart27cudaApiMemRangeGetAttributeEPvm21cudaMemRangeAttributePKvm
000000000005ab50 l     F .text	0000000000000015              _ZN6cudart19cuosSemaphoreSignalEP5sem_t
0000000000037fb0 l     F .text	0000000000000150              _ZN6cudart12driverHelper19memcpyAsyncDispatchEPvPKvm14cudaMemcpyKindP11CUstream_stb
0000000000016c10 l     F .text	0000000000000079              _ZN6cudart21cudaApiThreadSetLimitE9cudaLimitm
000000000005def0 l     F .text	0000000000000005              _ZN6cudart10cuosMallocEm
00000000000136d0 l     F .text	0000000000000089              _ZN6cudart29cudaApiGraphicsUnmapResourcesEiPP20cudaGraphicsResourceP11CUstream_st
0000000000019fa0 l     F .text	0000000000000090              _ZN6cudart25cudaApiBindTextureToArrayEPK16textureReferencePK9cudaArrayPK21cudaChannelFormatDesc
00000000000151b0 l     F .text	0000000000000069              _ZN6cudart16cudaApiFreeArrayEP9cudaArray
0000000000036180 l     F .text	0000000000000064              _ZN6cudart12driverHelper14driverMemcpy3DEP16CUDA_MEMCPY3D_stP11CUstream_stbb
0000000000018820 l     F .text	00000000000000ca              _ZN6cudart31cudaApiGraphMemsetNodeGetParamsEP14CUgraphNode_stP16cudaMemsetParams
0000000000013cf0 l     F .text	0000000000000059              _ZN6cudart26cudaApiGLUnmapBufferObjectEj
0000000000017b90 l     F .text	00000000000000f9              _ZN6cudart17cudaApiThreadExitEv
0000000000012090 l     F .text	00000000000000e5              _ZN6cudart16cudaApiGetDeviceEPi
0000000000014c40 l     F .text	0000000000000087              _ZN6cudart40cudaApiEGLStreamConsumerConnectWithFlagsEPP24CUeglStreamConnection_stPvj
000000000001b1e0 l     F .text	00000000000000d7              _ZN6cudart23cudaApiFuncSetAttributeEPKv17cudaFuncAttributei
000000000000e540 l     F .text	0000000000000007              _ZN6cudart23cudaApiStreamEndCaptureEP11CUstream_stPP10CUgraph_st
000000000001da30 l     F .text	00000000000000be              _ZN6cudart11globalState15registerTextureEPNS_12globalModuleEPK16textureReferencePPKvPKcibb
000000000000ec90 l     F .text	000000000000009f              __cudaRegisterFunction
00000000000369b0 l     F .text	00000000000001b9              _ZN6cudart12driverHelper20mallocMipmappedArrayEPP18cudaMipmappedArrayPK21cudaChannelFormatDescmmmjj
00000000000123f0 l     F .text	0000000000000059              _ZN6cudart23cudaApiGraphDestroyNodeEP14CUgraphNode_st
0000000000012080 l     F .text	0000000000000008              _ZN6cudart24cudaApiStreamAddCallbackEP11CUstream_stPFvS1_9cudaErrorPvES3_j
0000000000018690 l     F .text	0000000000000181              _ZN6cudart17cudaApiMemcpyPeerEPviPKvim
000000000000e470 l     F .text	000000000000000a              _ZN6cudart29cudaApiStreamIsCapturing_ptszEP11CUstream_stP23cudaStreamCaptureStatus
00000000000153e0 l     F .text	0000000000000059              _ZN6cudart11cudaApiFreeEPv
0000000000016140 l     F .text	000000000000005b              _ZN6cudart19cudaApiStreamCreateEPP11CUstream_st
0000000000012e40 l     F .text	0000000000000087              _ZN6cudart25cudaApiProfilerInitializeEPKcS1_14cudaOutputMode
000000000001a1d0 l     F .text	0000000000000077              _ZN6cudart32cudaApiGetTextureAlignmentOffsetEPmPK16textureReference
00000000000103d0 l     F .text	0000000000000007              _ZN6cudart24cudaApiMemcpy3DPeerAsyncEPK21cudaMemcpy3DPeerParmsP11CUstream_st
0000000000014be0 l     F .text	0000000000000059              _ZN6cudart34cudaApiEGLStreamConsumerDisconnectEPP24CUeglStreamConnection_st
000000000005dc30 l     F .text	0000000000000002              _ZN6cudart17cuosMemoryReleaseEv
0000000000024b90 l     F .text	000000000000001b              _ZN6cudart23getLazyInitContextStateEPPNS_12contextStateE
0000000000026340 l     F .text	0000000000000129              _ZN6cudart12contextState23prepareToLaunchFunctionEPP9CUfunc_stPKNS_10configDataEPKv
00000000000323d0 l     F .text	000000000000097b              _ZN6cudart19contextStateManager32notifyContextManagerOfModuleLoadEPNS_12contextStateERNS_3setIPNS_12globalModuleEEE
0000000000011610 l     F .text	00000000000000b0              _ZN6cudart18cudaApiMallocPitchEPPvPmmm
000000000003a0b0 l     F .text	0000000000000228              cudaMemcpyFromArray
0000000000013de0 l     F .text	000000000000007a              _ZN6cudart24cudaApiGLMapBufferObjectEPPvj
000000000000ea00 l     F .text	000000000000000a              _ZN6cudart23cudaApiStreamQuery_ptszEP11CUstream_st
0000000000014b40 l     F .text	0000000000000097              _ZN6cudart36cudaApiEGLStreamConsumerAcquireFrameEPP24CUeglStreamConnection_stPP20cudaGraphicsResourcePP11CUstream_stj
00000000000138e0 l     F .text	0000000000000087              _ZN6cudart41cudaApiGraphicsVDPAURegisterOutputSurfaceEPP20cudaGraphicsResourcejj
0000000000042470 l     F .text	0000000000000228              cudaMemcpyToArray_ptds
0000000000024d50 l     F .text	0000000000000011              _ZN6cudart11threadState12getLastErrorEv
000000000000e6b0 l     F .text	000000000000000a              _ZN6cudart23cudaApiGraphLaunch_ptszEP14CUgraphExec_stP11CUstream_st
0000000000013ed0 l     F .text	000000000000013b              _ZN6cudart40cudaApiGraphicsResourceGetMappedEglFrameEP15cudaEglFrame_stP20cudaGraphicsResourcejj
000000000005ec10 l     F .text	0000000000000005              _ZN6cudart24cuosEnterCriticalSectionEP15pthread_mutex_t
000000000005ac90 l     F .text	0000000000000015              _ZN6cudart20cuosSemaphoreDestroyEP5sem_t
000000000000e600 l     F .text	0000000000000007              _ZN6cudart25cudaApiStreamBeginCaptureEP11CUstream_st21cudaStreamCaptureMode
0000000000031bd0 l     F .text	00000000000000d7              _ZN6cudart19contextStateManager22getRuntimeContextStateEPPNS_12contextStateEb
000000000000fee0 l     F .text	00000000000000b8              _ZN6cudart20cudaApiMemset2DAsyncEPvmimmP11CUstream_st
0000000000012d60 l     F .text	0000000000000077              _ZN6cudart18cudaApiGraphCreateEPP10CUgraph_stj
00000000000171a0 l     F .text	00000000000000c1              __cudaInitModule
0000000000017ab0 l     F .text	00000000000000da              _ZN6cudart18cudaApiDeviceResetEv
00000000000194d0 l     F .text	0000000000000157              _ZN6cudart20cudaApiMemset3D_ptdsE14cudaPitchedPtri10cudaExtent
0000000000033700 l     F .text	0000000000000113              _ZN6cudart11arrayHelper34getChannelFormatDescFromDriverDescEP21cudaChannelFormatDescPmS3_S3_PK26CUDA_ARRAY3D_DESCRIPTOR_st
0000000000018ac0 l     F .text	0000000000000101              _ZN6cudart31cudaApiGraphKernelNodeGetParamsEP14CUgraphNode_stP20cudaKernelNodeParams
0000000000019aa0 l     F .text	00000000000000b1              _ZN6cudart20cudaApiMemset2D_ptdsEPvmimm
0000000000016c90 l     F .text	0000000000000051              _ZN6cudart24cudaApiDeviceSynchronizeEv
0000000000012070 l     F .text	000000000000000b              _ZN6cudart29cudaApiStreamAddCallback_ptszEP11CUstream_stPFvS1_9cudaErrorPvES3_j
00000000000117f0 l     F .text	0000000000000083              _ZN6cudart16cudaApiHostAllocEPPvmj
0000000000013760 l     F .text	0000000000000089              _ZN6cudart27cudaApiGraphicsMapResourcesEiPP20cudaGraphicsResourceP11CUstream_st
0000000000060a40 l     F .text	000000000000000e              atexit
0000000000018ee0 l     F .text	00000000000000dd              _ZN6cudart32cudaApiMemcpy2DToArrayAsync_ptszEP9cudaArraymmPKvmmm14cudaMemcpyKindP11CUstream_st
0000000000026230 l     F .text	0000000000000107              _ZN6cudart12contextState16getEntryFunctionEPPNS_17cudaEntryFunctionEPKv9cudaError
0000000000010060 l     F .text	0000000000000098              _ZN6cudart18cudaApiMemsetAsyncEPvimP11CUstream_st
00000000000305a0 l     F .text	0000000000000136              _ZN6cudart19contextStateManager32getSymbolFromDriverEntryFunctionEPPvP9CUfunc_st
0000000000034330 l     F .text	00000000000001b7              _ZN6cudart11arrayHelper16copyFromDevice2DE17CUmemorytype_enumPK9cudaArraymmPKcmmmmP11CUstream_stbb
00000000000279d0 l     F .text	0000000000000b7f              _ZN6cudart12contextState22markChangeModuleUnloadEPNS_12globalModuleE
0000000000010eb0 l     F .text	00000000000000c1              _ZN6cudart20cudaApiMemcpyToArrayEP9cudaArraymmPKvm14cudaMemcpyKind
000000000005ecc0 l     F .text	0000000000000007              _ZN6cudart29cuosInitializeCriticalSectionEP15pthread_mutex_t
0000000000031cb0 l     F .text	00000000000000ce              _ZN6cudart19contextStateManager22getRuntimeContextStateEPPNS_12contextStateEP8CUctx_st
0000000000015c40 l     F .text	00000000000000a4              _ZN6cudart27cudaApiEventCreateWithFlagsEPP10CUevent_stj
0000000000036310 l     F .text	000000000000002c              _ZN6cudart12driverHelper20hostGetDevicePointerEPvPS1_j
0000000000035a90 l     F .text	000000000000009b              _ZN6cudart11arrayHelper9getFormatEPK9cudaArrayRiR19CUarray_format_enum
00000000000363f0 l     F .text	000000000000029f              _ZN6cudart12driverHelper27getResDescFromDriverResDescEP16cudaResourceDescPK21CUDA_RESOURCE_DESC_stP15cudaTextureDescPK20CUDA_TEXTURE_DESC_stP20cudaResourceViewDescPK26CUDA_RESOURCE_VIEW_DESC_st
00000000000150b0 l     F .text	0000000000000069              _ZN6cudart25cudaApiFreeMipmappedArrayEP18cudaMipmappedArray
0000000000011900 l     F .text	0000000000000087              _ZN6cudart13cudaApiMallocEPPvm
0000000000021e90 l     F .text	000000000000004a              _ZN6cudart11globalState19unregisterFatBinaryEPNS_12globalModuleE
0000000000013e60 l     F .text	0000000000000068              _ZN6cudart29cudaApiGLRegisterBufferObjectEj
000000000000deb0 l     F .text	0000000000000014              _ZN6cudart24cudaApiCreateChannelDescEiiii21cudaChannelFormatKind
0000000000011270 l     F .text	00000000000000d9              _ZN6cudart27cudaApiMallocMipmappedArrayEPP18cudaMipmappedArrayPK21cudaChannelFormatDesc10cudaExtentjj
0000000000015850 l     F .text	00000000000000ce              _ZN6cudart36cudaApiExternalMemoryGetMappedBufferEPPvP19CUexternalMemory_stPK28cudaExternalMemoryBufferDesc
0000000000010d00 l     F .text	00000000000000d9              _ZN6cudart27cudaApiMemcpy2DToArray_ptdsEP9cudaArraymmPKvmmm14cudaMemcpyKind
00000000000111d0 l     F .text	0000000000000093              _ZN6cudart18cudaApiMemcpy_ptdsEPvPKvm14cudaMemcpyKind
0000000000010a80 l     F .text	00000000000000c2              _ZN6cudart27cudaApiMemcpyFromArrayAsyncEPvPK9cudaArraymmm14cudaMemcpyKindP11CUstream_st
000000000000e890 l     F .text	0000000000000007              _ZN6cudart21cudaApiLaunchHostFuncEP11CUstream_stPFvPvES2_
0000000000017310 l     F .text	0000000000000079              _ZN6cudart19cudaApiProfilerStopEv
0000000000012b50 l     F .text	0000000000000079              _ZN6cudart31cudaApiGraphMemsetNodeSetParamsEP14CUgraphNode_stPK16cudaMemsetParams
0000000000017670 l     F .text	0000000000000097              _ZN6cudart26cudaApiGetDevicePropertiesEP14cudaDevicePropi
00000000000137f0 l     F .text	000000000000008a              _ZN6cudart34cudaApiGraphicsResourceSetMapFlagsEP20cudaGraphicsResourcej
00000000000156e0 l     F .text	0000000000000059              _ZN6cudart28cudaApiDestroyExternalMemoryEP19CUexternalMemory_st
0000000000016740 l     F .text	0000000000000087              _ZN6cudart24cudaApiDeviceGetPCIBusIdEPcii
00000000000154a0 l     F .text	0000000000000087              _ZN6cudart19cudaApiHostRegisterEPvmj
0000000000024c70 l     F .text	00000000000000d8              _ZN6cudart17threadLaunchState10pushConfigE4dim3S1_mP11CUstream_st
00000000000122e0 l     F .text	0000000000000059              _ZN6cudart23cudaApiGraphExecDestroyEP14CUgraphExec_st
0000000000019240 l     F .text	00000000000000d9              _ZN6cudart29cudaApiMemcpy2DFromArray_ptdsEPvmPK9cudaArraymmmm14cudaMemcpyKind
00000000000160c0 l     F .text	0000000000000077              _ZN6cudart28cudaApiStreamCreateWithFlagsEPP11CUstream_stj
00000000000289b0 l     F .text	0000000000000c6b              _ZN6cudart12contextState19createEntryFunctionERKNS_17entryFunctionTempEPNS_12globalModuleE
0000000000024d70 l     F .text	00000000000003ec              _ZN6cudart11threadState15setValidDevicesEPii
0000000000022cc0 l     F .text	00000000000000db              _ZN6cudart11globalState18registerManagedVarEPNS_12globalModuleEPPvPcPKcbmbb
000000000000e7a0 l     F .text	000000000000000b              _ZN6cudart28cudaApiMemPrefetchAsync_ptszEPKvmiP11CUstream_st
000000000005efc0 l     F .text	000000000000005f              _ZN6cudart10cuosGetEnvEPKcPcm
0000000000032d50 l     F .text	00000000000009ae              _ZN6cudart19contextStateManager34notifyContextManagerOfModuleUnloadEPNS_12contextStateERNS_3setIPNS_6moduleEEE
0000000000019f10 l     F .text	0000000000000090              _ZN6cudart34cudaApiBindTextureToMipmappedArrayEPK16textureReferencePK18cudaMipmappedArrayPK21cudaChannelFormatDesc
0000000000015e00 l     F .text	000000000000008f              _ZN6cudart22cudaApiStreamWaitEventEP11CUstream_stP10CUevent_stj
000000000005acb0 l     F .text	0000000000000019              _ZN6cudart19cuosSemaphoreCreateEP5sem_ti
0000000000012870 l     F .text	0000000000000089              _ZN6cudart27cudaApiGraphNodeFindInCloneEPP14CUgraphNode_stS1_P10CUgraph_st
000000000001aaf0 l     F .text	00000000000000a5              _ZN6cudart25cudaApiFuncSetCacheConfigEPKv13cudaFuncCache
0000000000010620 l     F .text	0000000000000089              _ZN6cudart25cudaApiMemcpy3DAsync_ptszEPK17cudaMemcpy3DParmsP11CUstream_st
000000000005ebd0 l     F .text	0000000000000005              _ZN6cudart24cuosLeaveCriticalSectionEP15pthread_mutex_t
0000000000012fa0 l     F .text	0000000000000059              _ZN6cudart27cudaApiDestroySurfaceObjectEy
000000000002fcb0 l     F .text	000000000000023c              _ZN6cudart19contextStateManager7destroyEPS0_
00000000000161a0 l     F .text	0000000000000044              _ZN6cudart28cudaApiDeviceGetP2PAttributeEPi17cudaDeviceP2PAttrii
000000000000e380 l     F .text	0000000000000007              _ZN6cudart27cudaApiStreamGetCaptureInfoEP11CUstream_stP23cudaStreamCaptureStatusPy
000000000002f720 l     F .text	000000000000033a              _ZN6cudart12contextState13bindTexture2DEPmPK16textureReferencePKcPK21cudaChannelFormatDescmmm
0000000000013c70 l     F .text	0000000000000079              _ZN6cudart31cudaApiGLUnmapBufferObjectAsyncEjP11CUstream_st
0000000000024b50 l     F .text	0000000000000007              _ZN6cudart11threadState12setLastErrorE9cudaError
000000000000eaf0 l     F .text	000000000000000b              _ZN6cudart32cudaApiStreamAttachMemAsync_ptszEP11CUstream_stPvmj
0000000000037980 l     F .text	0000000000000264              _ZN6cudart12driverHelper8memcpy3DEPK17cudaMemcpy3DParmsbPNS_6deviceES5_P11CUstream_stbb
0000000000013a50 l     F .text	0000000000000087              _ZN6cudart31cudaApiGraphicsGLRegisterBufferEPP20cudaGraphicsResourcejj
000000000001d980 l     F .text	00000000000000ab              _ZN6cudart11globalState15registerSurfaceEPNS_12globalModuleEPK16surfaceReferencePPKvPKcib
0000000000016b10 l     F .text	0000000000000077              _ZN6cudart21cudaApiThreadGetLimitEPm9cudaLimit
0000000000015440 l     F .text	0000000000000059              _ZN6cudart21cudaApiHostUnregisterEPv
0000000000017770 l     F .text	00000000000001a1              _ZN6cudart21cudaApiGetDeviceFlagsEPj
0000000000012280 l     F .text	0000000000000059              _ZN6cudart19cudaApiGraphDestroyEP10CUgraph_st
0000000000017270 l     F .text	0000000000000097              _ZN6cudart29cudaApiGraphHostNodeGetParamsEP14CUgraphNode_stP18cudaHostNodeParams
0000000000021e00 l     F .text	0000000000000086              _ZN6cudart11globalState17registerFatBinaryEPPNS_12globalModuleEPv
0000000000037660 l     F .text	00000000000000d9              _ZN6cudart12driverHelper15memcpyFromArrayEPcPK9cudaArraymmm14cudaMemcpyKindP11CUstream_stbb
000000000001cdf0 l     F .text	0000000000000163              _ZN6cudart9deviceMgr23getDeviceFromPrimaryCtxEP8CUctx_st
000000000005b3f0 l     F .text	0000000000000007              _ZN6cudart30cuosInterlockedCompareExchangeEPVjjj
0000000000010600 l     F .text	000000000000000a              _ZN6cudart24cudaApiMemcpy3DPeer_ptdsEPK21cudaMemcpy3DPeerParms
0000000000015740 l     F .text	000000000000010f              _ZN6cudart44cudaApiExternalMemoryGetMappedMipmappedArrayEPP18cudaMipmappedArrayP19CUexternalMemory_stPK36cudaExternalMemoryMipmappedArrayDesc
000000000000de80 l     F .text	0000000000000003              _ZN6cudart25cudaApiSetDoubleForDeviceEPd
00000000000109a0 l     F .text	00000000000000d9              _ZN6cudart24cudaApiMemcpy2DFromArrayEPvmPK9cudaArraymmmm14cudaMemcpyKind
000000000000e480 l     F .text	0000000000000007              _ZN6cudart24cudaApiStreamIsCapturingEP11CUstream_stP23cudaStreamCaptureStatus
000000000005dc20 l     F .text	0000000000000002              _ZN6cudart16cuosMemoryRetainEv
0000000000018d70 l     F .text	0000000000000166              _ZN6cudart25cudaApiMemset3DAsync_ptszE14cudaPitchedPtri10cudaExtentP11CUstream_st
0000000000037740 l     F .text	0000000000000154              _ZN6cudart12driverHelper15memcpy2DToArrayEP9cudaArraymmPKcmmm14cudaMemcpyKindP11CUstream_stbb
0000000000015030 l     F .text	0000000000000079              _ZN6cudart17cudaApiMemGetInfoEPmS0_
0000000000015b30 l     F .text	0000000000000059              _ZN6cudart19cudaApiEventDestroyEP10CUevent_st
0000000000015a90 l     F .text	00000000000000a0              _ZN6cudart23cudaApiEventElapsedTimeEPfP10CUevent_stS2_
0000000000022c00 l     F .text	00000000000000b6              _ZN6cudart11globalState15registerHostVarEPNS_12globalModuleEPKcPvm
00000000000298f0 l     F .text	0000000000000bc5              _ZN6cudart12contextState14createVariableERKNS_12variableTempEPNS_12globalModuleE
0000000000016450 l     F .text	00000000000000c0              _ZN6cudart22cudaApiIpcGetMemHandleEP19cudaIpcMemHandle_stPv
000000000000eb00 l     F .text	0000000000000008              _ZN6cudart27cudaApiStreamAttachMemAsyncEP11CUstream_stPvmj
0000000000038100 l     F .text	0000000000000139              _ZN6cudart12driverHelper14memcpyDispatchEPvPKvm14cudaMemcpyKindb
0000000000016850 l     F .text	0000000000000057              _ZN6cudart31cudaApiDeviceSetSharedMemConfigE19cudaSharedMemConfig
00000000000197c0 l     F .text	00000000000000a5              _ZN6cudart23cudaApiMemcpyAsync_ptszEPvPKvm14cudaMemcpyKindP11CUstream_st
000000000001a0f0 l     F .text	00000000000000d5              _ZN6cudart20cudaApiBindTexture2DEPmPK16textureReferencePKvPK21cudaChannelFormatDescmmm
000000000005b7f0 l     F .text	00000000000001e2              _ZN6cudart28cuosVirtualFindFreeVaInRangeEmPvS0_m
00000000000374b0 l     F .text	0000000000000050              _ZN6cudart12driverHelper18memcpyArrayToArrayEP9cudaArraymmPKS1_mmm14cudaMemcpyKindb
000000000005dee0 l     F .text	0000000000000005              _ZN6cudart8cuosFreeEPv
0000000000025160 l     F .text	000000000000009c              _ZN6cudart11threadState14getDeviceToTryEPPNS_6deviceEi
000000000001d7f0 l     F .text	000000000000000c              _ZN6cudart19globalStateAutoLockD1Ev
000000000001b080 l     F .text	0000000000000015              _ZN6cudart26cudaApiMemcpyToSymbolAsyncEPKvS1_mm14cudaMemcpyKindP11CUstream_st
000000000000f010 l     F .text	0000000000000025              __cudaRegisterFatBinaryEnd
00000000000190a0 l     F .text	00000000000000ca              _ZN6cudart25cudaApiMemcpy2DAsync_ptszEPvmPKvmmm14cudaMemcpyKindP11CUstream_st
0000000000019c00 l     F .text	0000000000000087              _ZN6cudart13cudaApiMemsetEPvim
0000000000013d50 l     F .text	000000000000008e              _ZN6cudart29cudaApiGLMapBufferObjectAsyncEPPvjP11CUstream_st
000000000005ded0 l     F .text	0000000000000005              _ZN6cudart10cuosCallocEmm
000000000000e120 l     F .text	0000000000000044              _ZN6cudart25cudaApiDeviceGetAttributeEPi14cudaDeviceAttri
000000000002d170 l     F .text	00000000000006c2              _ZN6cudart12contextState12applyChangesEv
0000000000060700 l     F .text	0000000000000138              _ZN6cudart17cuosSprintfMallocEPKcz
00000000000132b0 l     F .text	00000000000000c9              _ZN6cudart35cudaApiGetTextureObjectResourceDescEP16cudaResourceDescy
0000000000013680 l     F .text	0000000000000044              _ZN6cudart39cudaApiGraphicsResourceGetMappedPointerEPPvPmP20cudaGraphicsResource
00000000000344f0 l     F .text	00000000000001a7              _ZN6cudart11arrayHelper14copyFromHost2DEPK9cudaArraymmPKcmmmP11CUstream_stbb
0000000000013880 l     F .text	0000000000000059              _ZN6cudart33cudaApiGraphicsUnregisterResourceEP20cudaGraphicsResource
000000000031a870 l     O .dynamic	0000000000000000              _DYNAMIC
0000000000026470 l     F .text	0000000000000031              _ZN6cudart12contextState22getDriverEntryFunctionEPP9CUfunc_stPKv
0000000000026fa0 l     F .text	0000000000000a25              _ZN6cudart12contextStateD1Ev
00000000000168b0 l     F .text	0000000000000057              _ZN6cudart27cudaApiDeviceSetCacheConfigE13cudaFuncCache
0000000000014130 l     F .text	0000000000000874              _ZN6cudart36cudaApiEGLStreamProducerPresentFrameEPP24CUeglStreamConnection_st15cudaEglFrame_stPP11CUstream_st
00000000000370f0 l     F .text	0000000000000337              _ZN6cudart12driverHelper23toCudartMemCopy3DParamsEPK16CUDA_MEMCPY3D_stP17cudaMemcpy3DParms
0000000000032320 l     F .text	0000000000000040              _ZN6cudart19contextStateManager32destroyCurrentThreadContextStateEv
0000000000019a10 l     F .text	0000000000000090              _ZN6cudart13cudaApiMemcpyEPvPKvm14cudaMemcpyKind
000000000001ac20 l     F .text	0000000000000077              _ZN6cudart23cudaApiGetSymbolAddressEPPvPKv
000000000001cfd0 l     F .text	00000000000006de              _ZN6cudart9deviceMgr12chooseDeviceEPK14cudaDeviceProp
000000000000de90 l     F .text	0000000000000003              _ZN6cudart23cudaApiSetDoubleForHostEPd
000000000000e220 l     F .text	0000000000000057              _ZN6cudart23cudaApiDriverGetVersionEPi
0000000000015120 l     F .text	0000000000000087              _ZN6cudart29cudaApiGetMipmappedArrayLevelEPP9cudaArrayPK18cudaMipmappedArrayj
000000000003a560 l     F .text	0000000000000228              cudaMemcpyToArray
000000000000ec80 l     F .text	0000000000000007              _ZN6cudart24cudaApiStreamGetPriorityEP11CUstream_stPi
0000000000013380 l     F .text	0000000000000059              _ZN6cudart27cudaApiDestroyTextureObjectEy
0000000000010720 l     F .text	00000000000000cf              _ZN6cudart27cudaApiMemcpy2DArrayToArrayEP9cudaArraymmPKS0_mmmm14cudaMemcpyKind
00000000000130d0 l     F .text	00000000000000ed              _ZN6cudart39cudaApiGetTextureObjectResourceViewDescEP20cudaResourceViewDescy
0000000000016970 l     F .text	0000000000000059              _ZN6cudart31cudaApiDeviceGetSharedMemConfigEP19cudaSharedMemConfig
0000000000026040 l     F .text	0000000000000053              _ZN6cudart12contextState25getTextureAlignmentOffsetEPmPK16textureReference
00000000000103c0 l     F .text	000000000000000a              _ZN6cudart29cudaApiMemcpy3DPeerAsync_ptszEPK21cudaMemcpy3DPeerParmsP11CUstream_st
0000000000014ab0 l     F .text	0000000000000089              _ZN6cudart36cudaApiEGLStreamConsumerReleaseFrameEPP24CUeglStreamConnection_stP20cudaGraphicsResourcePP11CUstream_st
000000000001aa00 l     F .text	000000000000003c              _ZN6cudart19cudaApiLaunchKernelEPKv4dim3S2_PPvmP11CUstream_st
000000000000ec70 l     F .text	000000000000000a              _ZN6cudart29cudaApiStreamGetPriority_ptszEP11CUstream_stPi
0000000000032090 l     F .text	000000000000028b              _ZN6cudart19contextStateManager38destroyAllContextStatesOnRuntimeUnloadEv
0000000000011cb0 l     F .text	000000000000000b              _ZN6cudart39cudaApiWaitExternalSemaphoresAsync_ptszEPKP22CUexternalSemaphore_stPK31cudaExternalSemaphoreWaitParamsjP11CUstream_st
0000000000017c90 l     F .text	00000000000000f5              _ZN6cudart26cudaApiVDPAUSetVDPAUDeviceEijPF9VdpStatusjjPPvE
000000000001a9c0 l     F .text	000000000000003c              _ZN6cudart24cudaApiLaunchKernel_ptszEPKv4dim3S2_PPvmP11CUstream_st
0000000000017d90 l     F .text	00000000000000ae              _ZN6cudart20cudaApiGLSetGLDeviceEi
000000000000ebb0 l     F .text	000000000000000a              _ZN6cudart26cudaApiStreamGetFlags_ptszEP11CUstream_stPj
000000000001d840 l     F .text	0000000000000065              _ZN6cudart11globalState10loadDriverEv
00000000000124f0 l     F .text	0000000000000099              _ZN6cudart27cudaApiGraphAddDependenciesEP10CUgraph_stPKP14CUgraphNode_stS5_m
0000000000010c20 l     F .text	00000000000000dd              _ZN6cudart27cudaApiMemcpy2DToArrayAsyncEP9cudaArraymmPKvmmm14cudaMemcpyKindP11CUstream_st
000000000000e370 l     F .text	000000000000000a              _ZN6cudart32cudaApiStreamGetCaptureInfo_ptszEP11CUstream_stP23cudaStreamCaptureStatusPy
00000000000382d0 l     F .text	00000000000000c3              __cudaGetExportTableInternal
0000000000018420 l     F .text	00000000000000e1              _ZN6cudart26cudaApiDeviceCanAccessPeerEPiii
0000000000036290 l     F .text	0000000000000042              _ZN6cudart12driverHelper10mallocHostEmPPvj
00000000000175f0 l     F .text	0000000000000079              _ZN6cudart19cudaApiChooseDeviceEPiPK14cudaDeviceProp
0000000000018320 l     F .text	00000000000000f4              _ZN6cudart29cudaApiDeviceEnablePeerAccessEij
000000000000e6c0 l     F .text	0000000000000007              _ZN6cudart18cudaApiGraphLaunchEP14CUgraphExec_stP11CUstream_st
000000000001d8b0 l     F .text	00000000000000c7              _ZN6cudart11globalState21registerEntryFunctionEPNS_12globalModuleEPKcPcS4_iP5uint3S7_P4dim3S9_Pi
0000000000014a10 l     F .text	0000000000000097              _ZN6cudart31cudaApiEGLStreamProducerConnectEPP24CUeglStreamConnection_stPvii
00000000000170d0 l     F .text	00000000000000c5              _ZN6cudart23cudaApiGraphAddHostNodeEPP14CUgraphNode_stP10CUgraph_stPKS1_mPK18cudaHostNodeParams
0000000000011990 l     F .text	0000000000000091              _ZN6cudart20cudaApiMallocManagedEPPvmj
000000000005b4c0 l     F .text	0000000000000051              _ZN6cudart12cuosGetTimerEPNS_9cuostimerE
0000000000011cc0 l     F .text	0000000000000008              _ZN6cudart34cudaApiWaitExternalSemaphoresAsyncEPKP22CUexternalSemaphore_stPK31cudaExternalSemaphoreWaitParamsjP11CUstream_st
000000000001b060 l     F .text	0000000000000015              _ZN6cudart31cudaApiMemcpyToSymbolAsync_ptszEPKvS1_mm14cudaMemcpyKindP11CUstream_st
0000000000019320 l     F .text	00000000000000d9              _ZN6cudart22cudaApiMemcpy2DToArrayEP9cudaArraymmPKvmmm14cudaMemcpyKind
000000000000ea10 l     F .text	0000000000000007              _ZN6cudart18cudaApiStreamQueryEP11CUstream_st
000000000000dce0 l     F .text	0000000000000198              _ZN6cudart19cudaApiGetErrorNameE9cudaError
000000000001d810 l     F .text	0000000000000023              _ZN6cudart14getGlobalStateEv
0000000000012590 l     F .text	0000000000000089              _ZN6cudart33cudaApiGraphNodeGetDependentNodesEP14CUgraphNode_stPS1_Pm
000000000001af10 l     F .text	000000000000000b              _ZN6cudart28cudaApiMemcpyFromSymbol_ptdsEPvPKvmm14cudaMemcpyKind
0000000000035d90 l     F .text	0000000000000373              _ZN6cudart12driverHelper11memset3DPtrE14cudaPitchedPtri10cudaExtentP11CUstream_stbb
0000000000011420 l     F .text	00000000000000c4              _ZN6cudart18cudaApiMallocArrayEPP9cudaArrayPK21cudaChannelFormatDescmmj
0000000000015920 l     F .text	0000000000000169              _ZN6cudart27cudaApiImportExternalMemoryEPP19CUexternalMemory_stPK28cudaExternalMemoryHandleDesc
0000000000018ca0 l     F .text	00000000000000c2              _ZN6cudart25cudaApiMemcpyArrayToArrayEP9cudaArraymmPKS0_mmm14cudaMemcpyKind
0000000000019e70 l     F .text	0000000000000008              _ZN6cudart48cudaApiOccupancyMaxActiveBlocksPerMultiprocessorEPiPKvim
0000000000011350 l     F .text	00000000000000cf              _ZN6cudart20cudaApiMalloc3DArrayEPP9cudaArrayPK21cudaChannelFormatDesc10cudaExtentj
0000000000012450 l     F .text	0000000000000099              _ZN6cudart30cudaApiGraphRemoveDependenciesEP10CUgraph_stPKP14CUgraphNode_stS5_m
0000000000010f80 l     F .text	00000000000000ca              _ZN6cudart20cudaApiMemcpy2DAsyncEPvmPKvmmm14cudaMemcpyKindP11CUstream_st
00000000003174d8 l       .init_array	0000000000000000              __init_array_end
0000000000037500 l     F .text	0000000000000158              _ZN6cudart12driverHelper17memcpy2DFromArrayEPcmPK9cudaArraymmmm14cudaMemcpyKindP11CUstream_stbb
0000000000034a10 l     F .text	000000000000032c              _ZN6cudart11arrayHelper14copyFromDeviceE17CUmemorytype_enumPK9cudaArraymmPKcmmP11CUstream_stbb
0000000000037430 l     F .text	000000000000007d              _ZN6cudart12driverHelper20memcpy2DArrayToArrayEP9cudaArraymmPKS1_mmmm14cudaMemcpyKindb
0000000000033d60 l     F .text	000000000000011d              _ZN6cudart11arrayHelper11copyToArrayEPK9cudaArraymmPS1_mmmb
000000000001b670 l     F .text	000000000000010b              _ZN6cudart35cudaApiGraphExecKernelNodeSetParamsEP14CUgraphExec_stP14CUgraphNode_stPK20cudaKernelNodeParams
000000000001b890 l     F .text	0000000000000146              _ZN6cudart25cudaApiGraphAddKernelNodeEPP14CUgraphNode_stP10CUgraph_stPKS1_mPK20cudaKernelNodeParams
0000000000013ae0 l     F .text	0000000000000097              _ZN6cudart30cudaApiGraphicsGLRegisterImageEPP20cudaGraphicsResourcejjj
0000000000012620 l     F .text	0000000000000089              _ZN6cudart31cudaApiGraphNodeGetDependenciesEP14CUgraphNode_stPS1_Pm
00000000000361f0 l     F .text	0000000000000023              _ZN6cudart12driverHelper8freeHostEPv
00000000000362e0 l     F .text	0000000000000023              _ZN6cudart12driverHelper12hostGetFlagsEPjPv
0000000000026500 l     F .text	000000000000006e              _ZN6cudart12contextState22unbindTextureReferenceEPK16textureReference
0000000000033830 l     F .text	000000000000047c              _ZN6cudart11arrayHelper11getDescInfoEPK21cudaChannelFormatDescRiR19CUarray_format_enum
000000000000e940 l     F .text	000000000000000a              _ZN6cudart23cudaApiEventRecord_ptszEP10CUevent_stP11CUstream_st
0000000000024aa0 l     F .text	00000000000000ad              _ZN6cudart11threadState10initializeEv
0000000000019c90 l     F .text	0000000000000089              _ZN6cudart20cudaApiMemcpy3DAsyncEPK17cudaMemcpy3DParmsP11CUstream_st
000000000001cc80 l     F .text	000000000000014b              _ZN6cudart9deviceMgr19getDeviceFromDriverEPPNS_6deviceEi
0000000000019870 l     F .text	00000000000000c1              _ZN6cudart27cudaApiMemcpyFromArray_ptdsEPvPK9cudaArraymmm14cudaMemcpyKind
000000000002c950 l     F .text	0000000000000820              _ZN6cudart12contextState16unloadAllModulesEb
000000000000f120 l     F .text	0000000000000087              _ZN6cudart21cudaApiGetChannelDescEP21cudaChannelFormatDescPK9cudaArray
0000000000015ef0 l     F .text	0000000000000059              _ZN6cudart24cudaApiStreamSynchronizeEP11CUstream_st
00000000000114f0 l     F .text	0000000000000055              _ZN6cudart15cudaApiFreeHostEPv
0000000000019940 l     F .text	00000000000000c1              _ZN6cudart25cudaApiMemcpyToArray_ptdsEP9cudaArraymmPKvm14cudaMemcpyKind
000000000000e0d0 l     F .text	0000000000000049              _ZN6cudart24cudaApiRuntimeGetVersionEPi
0000000000034060 l     F .text	000000000000009e              _ZN6cudart11arrayHelper13bindToSurfaceEPK9cudaArrayP12CUsurfref_st
00000000000353b0 l     F .text	0000000000000324              _ZN6cudart11arrayHelper10copyToHostEPK9cudaArraymmPcmP11CUstream_stbb
0000000000038be0 l     F .text	0000000000000172              cudaDeviceSynchronize
0000000000013970 l     F .text	0000000000000087              _ZN6cudart40cudaApiGraphicsVDPAURegisterVideoSurfaceEPP20cudaGraphicsResourcejj
00000000000149b0 l     F .text	0000000000000059              _ZN6cudart34cudaApiEGLStreamProducerDisconnectEPP24CUeglStreamConnection_st
0000000000013b80 l     F .text	0000000000000077              _ZN6cudart32cudaApiGLSetBufferObjectMapFlagsEjj
00000000000116c0 l     F .text	0000000000000087              _ZN6cudart19cudaApiHostGetFlagsEPjPv
0000000000033d30 l     F .text	000000000000002e              _ZN6cudart11arrayHelper12setupTextureEPK18cudaMipmappedArrayP11CUtexref_st
000000000002aa60 l     F .text	0000000000000b95              _ZN6cudart12contextState13createSurfaceERKNS_11surfaceTempEPNS_12globalModuleE
0000000000015e90 l     F .text	0000000000000059              _ZN6cudart29cudaApiStreamSynchronize_ptszEP11CUstream_st
00000000000196f0 l     F .text	00000000000000c9              _ZN6cudart15cudaApiMemcpy2DEPvmPKvmmm14cudaMemcpyKind
0000000000012aa0 l     F .text	00000000000000a9              _ZN6cudart29cudaApiGraphAddChildGraphNodeEPP14CUgraphNode_stP10CUgraph_stPKS1_mS4_
000000000001a400 l     F .text	0000000000000092              _ZN6cudart26cudaApiGetSurfaceReferenceEPPK16surfaceReferencePKv
0000000000037bf0 l     F .text	00000000000003c0              _ZN6cudart12driverHelper11memcpy2DPtrEPcmPKcmmm14cudaMemcpyKindP11CUstream_stbb
0000000000011880 l     F .text	0000000000000077              _ZN6cudart17cudaApiMallocHostEPPvm
0000000000016b90 l     F .text	0000000000000079              _ZN6cudart21cudaApiDeviceSetLimitE9cudaLimitm
000000000000efe0 l     F .text	0000000000000022              __cudaUnregisterFatBinary
0000000000317430 l       .init_array	0000000000000000              __init_array_start
0000000000015cf0 l     F .text	000000000000005b              _ZN6cudart18cudaApiEventCreateEPP10CUevent_st
000000000005ebe0 l     F .text	0000000000000022              _ZN6cudart27cuosTryEnterCriticalSectionEP15pthread_mutex_t
0000000000012180 l     F .text	0000000000000021              _ZN6cudart22cudaApiPeekAtLastErrorEv
0000000000018bd0 l     F .text	00000000000000cf              _ZN6cudart32cudaApiMemcpy2DArrayToArray_ptdsEP9cudaArraymmPKS0_mmmm14cudaMemcpyKind
0000000000012ed0 l     F .text	00000000000000c9              _ZN6cudart35cudaApiGetSurfaceObjectResourceDescEP16cudaResourceDescy
000000000001a250 l     F .text	000000000000006e              _ZN6cudart20cudaApiUnbindTextureEPK16textureReference
0000000000016a90 l     F .text	0000000000000077              _ZN6cudart21cudaApiDeviceGetLimitEPm9cudaLimit
000000000001b2c0 l     F .text	00000000000001bf              _ZN6cudart25cudaApiGraphAddMemsetNodeEPP14CUgraphNode_stP10CUgraph_stPKS1_mPK16cudaMemsetParams
000000000000e950 l     F .text	0000000000000007              _ZN6cudart18cudaApiEventRecordEP10CUevent_stP11CUstream_st
000000000005f0d0 l     F .text	00000000000000b0              _ZN6cudart13cuosPosixInitEv
000000000001a030 l     F .text	00000000000000b3              _ZN6cudart18cudaApiBindTextureEPmPK16textureReferencePKvPK21cudaChannelFormatDescm
0000000000035c80 l     F .text	000000000000008b              _ZN6cudart12driverHelper11memset2DPtrEPcmimmP11CUstream_stbb
00000000000244f0 l     F .text	00000000000004b7              _ZN6cudart11globalState20registerFatBinaryEndEPNS_12globalModuleE
000000000005dc10 l     F .text	0000000000000003              _ZN6cudart23cuosMemoryStartTeardownEv
00000000000131c0 l     F .text	00000000000000ef              _ZN6cudart34cudaApiGetTextureObjectTextureDescEP15cudaTextureDescy
0000000000016280 l     F .text	0000000000000059              _ZN6cudart24cudaApiIpcCloseMemHandleEPv
000000000000e880 l     F .text	000000000000000a              _ZN6cudart26cudaApiLaunchHostFunc_ptszEP11CUstream_stPFvPvES2_
0000000000011050 l     F .text	00000000000000c9              _ZN6cudart20cudaApiMemcpy2D_ptdsEPvmPKvmmm14cudaMemcpyKind
000000000001dc20 l     F .text	000000000000002f              _ZN6cudart11globalState22getCurrentContextStateEv
0000000000042240 l     F .text	0000000000000228              cudaMemcpyFromArray_ptds
0000000000034860 l     F .text	00000000000001ac              _ZN6cudart11arrayHelper12copyToHost2DEPK9cudaArraymmPcmmmP11CUstream_stbb
0000000000014010 l     F .text	0000000000000114              _ZN6cudart35cudaApiEGLStreamProducerReturnFrameEPP24CUeglStreamConnection_stP15cudaEglFrame_stPP11CUstream_st
0000000000010610 l     F .text	0000000000000007              _ZN6cudart19cudaApiMemcpy3DPeerEPK21cudaMemcpy3DPeerParms
00000000000161f0 l     F .text	000000000000008c              _ZN6cudart22cudaApiSetValidDevicesEPii
000000000001d6b0 l     F .text	0000000000000088              _ZN6cudart6device22updateDevicePropertiesEv
0000000000017710 l     F .text	0000000000000059              _ZN6cudart21cudaApiGetDeviceCountEPi
000000000001af20 l     F .text	0000000000000008              _ZN6cudart23cudaApiMemcpyFromSymbolEPvPKvmm14cudaMemcpyKind
0000000000015fb0 l     F .text	0000000000000079              _ZN6cudart35cudaApiDeviceGetStreamPriorityRangeEPiS0_
0000000000015f50 l     F .text	0000000000000059              _ZN6cudart20cudaApiStreamDestroyEP11CUstream_st
000000000000f040 l     F .text	0000000000000036              __cudaRegisterFatBinary
0000000000019d90 l     F .text	00000000000000d6              _ZN6cudart57cudaApiOccupancyMaxActiveBlocksPerMultiprocessorWithFlagsEPiPKvimj
0000000000018250 l     F .text	00000000000000cf              _ZN6cudart30cudaApiDeviceDisablePeerAccessEi
000000000002f3f0 l     F .text	000000000000032e              _ZN6cudart12contextState11bindTextureEPmPK16textureReferencePKcPK21cudaChannelFormatDescm
0000000000015220 l     F .text	00000000000001b7              _ZN6cudart27cudaApiPointerGetAttributesEP21cudaPointerAttributesPKv
00000000000167d0 l     F .text	0000000000000079              _ZN6cudart26cudaApiDeviceGetByPCIBusIdEPiPKc
0000000000018510 l     F .text	0000000000000180              _ZN6cudart22cudaApiMemcpyPeerAsyncEPviPKvimP11CUstream_st
0000000000019e80 l     F .text	0000000000000090              _ZN6cudart25cudaApiBindSurfaceToArrayEPK16surfaceReferencePK9cudaArrayPK21cudaChannelFormatDesc
0000000000015b90 l     F .text	0000000000000044              _ZN6cudart23cudaApiEventSynchronizeEP10CUevent_st
0000000000016f50 l     F .text	00000000000000d9              __cudaPopCallConfiguration
0000000000017390 l     F .text	000000000000025f              _ZN6cudart41cudaApiLaunchCooperativeKernelMultiDeviceEP16cudaLaunchParamsjj
00000000000126b0 l     F .text	0000000000000099              _ZN6cudart20cudaApiGraphGetEdgesEP10CUgraph_stPP14CUgraphNode_stS4_Pm
00000000000106b0 l     F .text	0000000000000069              _ZN6cudart20cudaApiMemcpy3D_ptdsEPK17cudaMemcpy3DParms
0000000000059df0 l     F .text	0000000000000013              _ZN6cudart15cuosGetPageSizeEv
000000000005eaa0 l     F .text	0000000000000015              _ZN6cudart8cuosOnceEPiPFvvE
0000000000015be0 l     F .text	0000000000000052              _ZN6cudart17cudaApiEventQueryEP10CUevent_st
000000000001adc0 l     F .text	0000000000000015              _ZN6cudart33cudaApiMemcpyFromSymbolAsync_ptszEPvPKvmm14cudaMemcpyKindP11CUstream_st
0000000000016510 l     F .text	0000000000000167              _ZN6cudart25cudaApiIpcOpenEventHandleEPP10CUevent_st21cudaIpcEventHandle_st
0000000000024bb0 l     F .text	00000000000000bc              _ZN6cudart17threadLaunchState18popConfigForLaunchERNS_10configDataE
0000000000012900 l     F .text	0000000000000079              _ZN6cudart17cudaApiGraphCloneEPP10CUgraph_stS1_
000000000000dea0 l     F .text	0000000000000006              _ZN6cudart29cudaApiEventCreateFromEGLSyncEPP10CUevent_stPvj
0000000000016cf0 l     F .text	0000000000000051              _ZN6cudart24cudaApiThreadSynchronizeEv
0000000000025200 l     F .text	000000000000008c              _ZN6cudart11threadState18getNumDevicesToTryEPi
0000000000011120 l     F .text	00000000000000a2              _ZN6cudart18cudaApiMemcpyAsyncEPvPKvm14cudaMemcpyKindP11CUstream_st
000000000000fc20 l     F .text	000000000000015f              _ZN6cudart20cudaApiMemset3DAsyncE14cudaPitchedPtri10cudaExtentP11CUstream_st
0000000000017e40 l     F .text	0000000000000409              _ZN6cudart19cudaApiGLGetDevicesEPjPij16cudaGLDeviceList
0000000000013a00 l     F .text	0000000000000044              _ZN6cudart21cudaApiVDPAUGetDeviceEPijPF9VdpStatusjjPPvE
000000000031aad0 l     O .got	0000000000000000              _GLOBAL_OFFSET_TABLE_
00000000000162e0 l     F .text	000000000000016f              _ZN6cudart23cudaApiIpcOpenMemHandleEPPv19cudaIpcMemHandle_stj
000000000000ebc0 l     F .text	0000000000000007              _ZN6cudart21cudaApiStreamGetFlagsEP11CUstream_stPj
000000000001ade0 l     F .text	0000000000000015              _ZN6cudart28cudaApiMemcpyFromSymbolAsyncEPvPKvmm14cudaMemcpyKindP11CUstream_st
0000000000046eb0 l     F .text	00000000000001b5              cudaMalloc
000000000003ae10 l     F .text	00000000000001eb              cudaMemcpy
0000000000017030 l     F .text	000000000000009b              _ZN6cudart29cudaApiGraphHostNodeSetParamsEP14CUgraphNode_stPK18cudaHostNodeParams
00000000000133e0 l     F .text	0000000000000136              _ZN6cudart26cudaApiCreateTextureObjectEPyPK16cudaResourceDescPK15cudaTextureDescPK20cudaResourceViewDesc
000000000002f160 l     F .text	0000000000000289              _ZN6cudart12contextState11bindTextureEPK16textureReferencePK9cudaArrayPK21cudaChannelFormatDesc
0000000000014de0 l     F .text	0000000000000044              _ZN6cudart28cudaApiMemRangeGetAttributesEPPvPmP21cudaMemRangeAttributemPKvm
0000000000012bd0 l     F .text	00000000000000c3              _ZN6cudart31cudaApiGraphMemcpyNodeSetParamsEP14CUgraphNode_stPK17cudaMemcpy3DParms
0000000000036340 l     F .text	000000000000002e              _ZN6cudart12driverHelper16mallocManagedPtrEmjPPv
0000000000010de0 l     F .text	00000000000000c2              _ZN6cudart25cudaApiMemcpyToArrayAsyncEP9cudaArraymmPKvm14cudaMemcpyKindP11CUstream_st
00000000000215c0 l     F .text	00000000000001dd              _ZN6cudart12globalModule15loadIntoContextEPNS_12contextStateE
0000000000036b70 l     F .text	00000000000001b9              _ZN6cudart12driverHelper11mallocArrayEPP9cudaArrayPK21cudaChannelFormatDescmmmij
0000000000020fe0 l     F .text	00000000000002f0              _ZN6cudart11globalState19getModuleByVariableEPKv
0000000000025480 l     F .text	000000000000004c              _ZN6cudart10configData3setE4dim3S1_mP11CUstream_st
0000000000011f60 l     F .text	0000000000000008              _ZN6cudart36cudaApiSignalExternalSemaphoresAsyncEPKP22CUexternalSemaphore_stPK33cudaExternalSemaphoreSignalParamsjP11CUstream_st
000000000001a6e0 l     F .text	000000000000003c              _ZN6cudart35cudaApiLaunchCooperativeKernel_ptszEPKv4dim3S2_PPvmP11CUstream_st
0000000000016680 l     F .text	00000000000000c0              _ZN6cudart24cudaApiIpcGetEventHandleEP21cudaIpcEventHandle_stP10CUevent_st
0000000000025290 l     F .text	0000000000000021              _ZN6cudart22doLazyInitContextStateEv
000000000000ef40 l     F .text	000000000000009b              __cudaRegisterVar
0000000000035a00 l     F .text	000000000000008b              _ZN6cudart11arrayHelper14getChannelDescEPK9cudaArrayP21cudaChannelFormatDesc
000000000000e170 l     F .text	00000000000000a5              __cudaPushCallConfiguration
0000000000035bb0 l     F .text	00000000000000af              _ZN6cudart11arrayHelper9getFormatEPK18cudaMipmappedArrayRiR19CUarray_format_enum
0000000000036220 l     F .text	000000000000006f              _ZN6cudart12driverHelper11mallocPitchEmmmPPvPm
00000000000261b0 l     F .text	0000000000000031              _ZN6cudart12contextState19getSurfaceReferenceEPPK16surfaceReferencePKv
000000000001cdd0 l     F .text	000000000000001c              _ZN6cudart9deviceMgr9getDeviceEPPNS_6deviceEi
0000000000016030 l     F .text	0000000000000087              _ZN6cudart31cudaApiStreamCreateWithPriorityEPP11CUstream_stji
000000000001d760 l     F .text	000000000000008b              _ZN6cudart6device19resetPrimaryContextEv
0000000000000000       F *UND*	0000000000000000              sem_destroy@@GLIBC_2.2.5
000000000003da90 g     F .text	0000000000000208              .hidden cudaGraphAddMemsetNode
0000000000000000       F *UND*	0000000000000000              ftell@@GLIBC_2.2.5
0000000000000000       F *UND*	0000000000000000              pthread_cond_signal@@GLIBC_2.3.2
0000000000000000       F *UND*	0000000000000000              _Znam@@GLIBCXX_3.4
0000000000000000       F *UND*	0000000000000000              getegid@@GLIBC_2.2.5
000000000005bcd0 g     F .text	00000000000000a0              .hidden _ZN6cudart16cuosSocketSendFdEPNS_10CUOSsocketEi
0000000000053600 g     F .text	000000000000021f              .hidden cudaMemcpyAsync
000000000031b530 g     O .bss	0000000000000008              .hidden _ZN6cudart21__fun_cuCtxSetCurrentE
000000000003f720 g     F .text	000000000000019a              .hidden cudaDestroyTextureObject
000000000031b580 g     O .bss	0000000000000008              .hidden _ZN6cudart33__fun_cuCtxGetStreamPriorityRangeE
000000000004dc60 g     F .text	00000000000001b5              .hidden cudaDeviceGetLimit
000000000031b898 g     O .bss	0000000000000008              .hidden _ZN6cudart23__fun_cuTexObjectCreateE
00000000000560c0 g     F .text	00000000000001e5              .hidden cudaLaunchHostFunc_ptsz
00000000000395b0 g     F .text	000000000000019a              .hidden cudaMemcpy3DPeer
0000000000000000       F *UND*	0000000000000000              __errno_location@@GLIBC_2.2.5
0000000000000000       F *UND*	0000000000000000              pthread_rwlockattr_init@@GLIBC_2.2.5
000000000005e780 g     F .text	00000000000000cf              .hidden _ZN6cudart24cuosThreadCreateWithNameEPPNS_13CUOSthread_stEPFiPvES3_PKc
000000000031bca8 g     O .bss	0000000000000008              .hidden _ZN6cudart30__fun_cuGraphHostNodeSetParamsE
000000000031b638 g     O .bss	0000000000000008              .hidden _ZN6cudart20__fun_cuMemHostAllocE
000000000031ba90 g     O .bss	0000000000000008              .hidden _ZN6cudart25__fun_cuIpcGetEventHandleE
00000000000564b0 g     F .text	0000000000000172              .hidden cudaProfilerStop
0000000000008ba6  w    F .text	0000000000000031              _ZN4dim3C1Ejjj
00000000000582b0 g     F .text	00000000000001f4              .hidden cudaGraphicsResourceGetMappedEglFrame
000000000004d440 g     F .text	000000000000018f              .hidden cudaDeviceSetSharedMemConfig
000000000005ae40 g     F .text	00000000000000bb              .hidden _ZN6cudart27cuosEventIpcCreateWithFlagsEPNS_9cuosEventEPcNS_15cuosEventMode_tEj
000000000005b5e0 g     F .text	000000000000005a              .hidden _ZN6cudart21cuosGetThreadAffinityEPNS_13CUOSthread_stEPm
0000000000000000       F *UND*	0000000000000000              syscall@@GLIBC_2.2.5
0000000000000000       F *UND*	0000000000000000              uname@@GLIBC_2.2.5
0000000000042ae0 g     F .text	00000000000001f4              .hidden cudaMemAdvise
000000000031b960 g     O .bss	0000000000000008              .hidden _ZN6cudart19__fun_cuEventCreateE
000000000004e4b0 g     F .text	0000000000000200              .hidden cudaWaitExternalSemaphoresAsync_ptsz
000000000031b578 g     O .bss	0000000000000008              .hidden _ZN6cudart29__fun_cuCtxGetSharedMemConfigE
000000000005e600 g     F .text	0000000000000007              .hidden _ZN6cudart16cuosReadLockFileEP8_IO_FILEj
00000000000121e0 g     F .text	0000000000000040              .hidden cudaGetExportTable
0000000000058690 g     F .text	0000000000000229              .hidden cudaEGLStreamProducerPresentFrame
00000000000384c0 g     F .text	00000000000001d8              .hidden cudaStreamGetCaptureInfo
000000000003f020 g     F .text	00000000000001b5              .hidden cudaCreateSurfaceObject
000000000005eb50 g     F .text	0000000000000008              .hidden _ZN6cudart21cuosAcquireReaderLockEPPv
00000000000533c0 g     F .text	000000000000023e              .hidden cudaMemcpyToSymbolAsync
0000000000000000       F *UND*	0000000000000000              __strtol_internal@@GLIBC_2.2.5
0000000000049bd0 g     F .text	00000000000001b5              .hidden cudaStreamGetFlags_ptsz
000000000031b5b8 g     O .bss	0000000000000008              .hidden _ZN6cudart25__fun_cuModuleGetFunctionE
000000000031b950 g     O .bss	0000000000000008              .hidden _ZN6cudart22__fun_cuLaunchHostFuncE
000000000003cdb0 g     F .text	00000000000001b5              .hidden cudaGraphChildGraphNodeGetGraph
0000000000000000       F *UND*	0000000000000000              pthread_condattr_init@@GLIBC_2.2.5
00000000000358a0 g     F .text	00000000000000c8              .hidden _ZN6cudart11arrayHelper11writeExtentEPK9cudaArrayR16CUDA_MEMCPY3D_st10cudaExtent
000000000031b698 g     O .bss	0000000000000008              .hidden _ZN6cudart23__fun_cuMemcpyPeer_ptdsE
000000000005eef0 g     F .text	0000000000000017              .hidden _ZN6cudart15cuosLoadLibraryEPKc
000000000005eda0 g     F .text	0000000000000028              .hidden _ZN6cudart12cuosTlsAllocEPFvPvE
000000000031b970 g     O .bss	0000000000000008              .hidden _ZN6cudart24__fun_cuEventRecord_ptszE
0000000000000000       F *UND*	0000000000000000              pthread_kill@@GLIBC_2.2.5
000000000003d180 g     F .text	00000000000001b5              .hidden cudaGraphHostNodeSetParams
0000000000000000       F *UND*	0000000000000000              get_nprocs@@GLIBC_2.2.5
000000000031b798 g     O .bss	0000000000000008              .hidden _ZN6cudart26__fun_cuMemsetD2D8_v2_ptdsE
0000000000000000       F *UND*	0000000000000000              bind@@GLIBC_2.2.5
00000000000398f0 g     F .text	00000000000002b1              .hidden cudaMemcpy2DArrayToArray
0000000000000000       F *UND*	0000000000000000              mkfifo@@GLIBC_2.2.5
0000000000000000       F *UND*	0000000000000000              sem_timedwait@@GLIBC_2.2.5
000000000003d710 g     F .text	00000000000001b5              .hidden cudaGraphMemsetNodeSetParams
000000000031b938 g     O .bss	0000000000000008              .hidden _ZN6cudart31__fun_cuLaunchCooperativeKernelE
000000000005e130 g     F .text	000000000000002e              .hidden _ZN6cudart21cuosPipeGetReadStreamEPNS_11CUOSpipe_stE
000000000003f1e0 g     F .text	00000000000001b5              .hidden cudaGetTextureObjectResourceViewDesc
0000000000025580 g     F .text	00000000000000a7              .hidden _ZN6cudart12contextState15addBoundTextureEPNS_11cudaTextureE
0000000000044090 g     F .text	000000000000027e              .hidden cudaMemcpy2DToArray_ptds
00000000000605b0 g     F .text	00000000000000d9              .hidden _ZN6cudart16cuosVirtualAllocEPvmjj
000000000005e1b0 g     F .text	00000000000000d8              .hidden _ZN6cudart20cuosPipeOpenAsServerEPKcPvPNS_11CUOSpipe_stE
000000000031ba28 g     O .bss	0000000000000008              .hidden _ZN6cudart23__fun_cuStreamWaitEventE
00000000000488f0 g     F .text	000000000000019a              .hidden cudaDestroyExternalMemory
000000000003fac0 g     F .text	0000000000000256              .hidden cudaCreateChannelDesc
000000000005eae0 g     F .text	0000000000000025              .hidden _ZN6cudart24cuosTryAcquireWriterLockEPPv
000000000031ba88 g     O .bss	0000000000000008              .hidden _ZN6cudart28__fun_cuCtxDisablePeerAccessE
000000000031b4d8 g     O .bss	0000000000000008              .hidden _ZN6cudart24__fun_cuDriverGetVersionE
0000000000039bb0 g     F .text	000000000000027e              .hidden cudaMemcpyArrayToArray
000000000031b658 g     O .bss	0000000000000008              .hidden _ZN6cudart25__fun_cuMemHostUnregisterE
000000000031b9b0 g     O .bss	0000000000000008              .hidden _ZN6cudart31__fun_cuStreamWriteValue32_ptszE
000000000005e860 g     F .text	0000000000000005              .hidden _ZN6cudart20cuosThreadYieldHeavyEv
000000000005ecb0 g     F .text	000000000000000a              .hidden _ZN6cudart35cuosInitializeCriticalSectionSharedEP15pthread_mutex_t
000000000005de70 g     F .text	0000000000000041              .hidden _ZN6cudart15cuosGetHostnameEPcm
000000000003bad0 g     F .text	00000000000001f4              .hidden cudaGraphAddDependencies
0000000000045eb0 g     F .text	00000000000001d8              .hidden cudaHostRegister
000000000005e6c0 g     F .text	0000000000000015              .hidden _ZN6cudart9cuosRmdirEPKc
0000000000000000       F *UND*	0000000000000000              strstr@@GLIBC_2.2.5
0000000000052730 g     F .text	0000000000000270              .hidden cudaMemcpyFromArrayAsync
000000000031b7f8 g     O .bss	0000000000000008              .hidden _ZN6cudart28__fun_cuMipmappedArrayCreateE
000000000004a630 g     F .text	000000000000018c              .hidden cudaSetDeviceFlags
000000000031bc08 g     O .bss	0000000000000008              .hidden _ZN6cudart58__fun_cuOccupancyMaxActiveBlocksPerMultiprocessorWithFlagsE
000000000004e010 g     F .text	00000000000001a4              .hidden cudaStreamDestroy
000000000031b0a0 g       .nvFatBinSegment	0000000000000000              _edata
0000000000000000       F *UND*	0000000000000000              socket@@GLIBC_2.2.5
0000000000051400 g     F .text	00000000000001e5              .hidden cudaStreamWaitEvent
000000000003b1a0 g     F .text	000000000000019a              .hidden cudaGraphExecDestroy
000000000031bb20 g     O .bss	0000000000000008              .hidden _ZN6cudart32__fun_cuGraphicsGLRegisterBufferE
0000000000000000       F *UND*	0000000000000000              pthread_mutex_trylock@@GLIBC_2.2.5
000000000005e2f0 g     F .text	0000000000000012              .hidden _ZN6cudart12cuosShmUnmapEPv
000000000031b998 g     O .bss	0000000000000008              .hidden _ZN6cudart25__fun_cuStreamWaitValue32E
000000000005b640 g     F .text	00000000000001b0              .hidden _ZN6cudart16cuosSocketRecvFdEPNS_10CUOSsocketEPi
000000000031bc28 g     O .bss	0000000000000008              .hidden _ZN6cudart28__fun_cuMemRangeGetAttributeE
000000000005a9d0 g     F .text	00000000000000d3              .hidden _ZN6cudart22cuosSocketOpenAsServerEPKvmPNS_16CUOSserverSocketE
000000000003f3a0 g     F .text	00000000000001b5              .hidden cudaGetTextureObjectTextureDesc
000000000004b410 g     F .text	0000000000000192              .hidden cudaGetDeviceCount
000000000031bca0 g     O .bss	0000000000000008              .hidden _ZN6cudart30__fun_cuGraphHostNodeGetParamsE
0000000000000000       F *UND*	0000000000000000              rand@@GLIBC_2.2.5
00000000000558c0 g     F .text	0000000000000236              .hidden cudaMemcpyPeerAsync
000000000031ba98 g     O .bss	0000000000000008              .hidden _ZN6cudart26__fun_cuIpcOpenEventHandleE
0000000000057f10 g     F .text	00000000000001b5              .hidden cudaEGLStreamConsumerConnect
000000000005f520 g     F .text	000000000000000a              .hidden _ZN6cudart12cuosLockFileEP8_IO_FILEj
0000000000047660 g     F .text	000000000000019a              .hidden cudaSetDoubleForHost
000000000003e3f0 g     F .text	00000000000001b5              .hidden cudaGraphKernelNodeGetParams
00000000000391c0 g     F .text	0000000000000208              .hidden cudaMemset2D
000000000005e720 g     F .text	000000000000001d              .hidden _ZN6cudart19cuosHasThreadExitedEPNS_13CUOSthread_stE
000000000031bb08 g     O .bss	0000000000000008              .hidden _ZN6cudart32__fun_cuGLUnregisterBufferObjectE
0000000000000000       F *UND*	0000000000000000              recvmsg@@GLIBC_2.2.5
000000000005d8e0 g     F .text	000000000000008b              .hidden _ZN6cudart18cuosEventIpcCreateEPNS_9cuosEventEPcNS_15cuosEventMode_tE
0000000000059990 g     F .text	0000000000000005              .hidden _ZN6cudart17cuosEventGetOsPtrEPNS_9cuosEventEjj
000000000031b8f8 g     O .bss	0000000000000008              .hidden _ZN6cudart31__fun_cuImportExternalSemaphoreE
0000000000000000       F *UND*	0000000000000000              nanosleep@@GLIBC_2.2.5
000000000031ba38 g     O .bss	0000000000000008              .hidden _ZN6cudart25__fun_cuStreamAddCallbackE
000000000031b948 g     O .bss	0000000000000008              .hidden _ZN6cudart42__fun_cuLaunchCooperativeKernelMultiDeviceE
000000000004a130 g     F .text	00000000000001b5              .hidden cudaStreamCreateWithFlags
000000000031bc70 g     O .bss	0000000000000008              .hidden _ZN6cudart32__fun_cuGraphMemcpyNodeGetParamsE
0000000000060860  w    F .text	000000000000001a              .hidden _ZN6cudart3setIPKvE8get_sizeEjPm
000000000005fda0 g     F .text	0000000000000092              .hidden _ZN6cudart14cuosShmCloseExEPNS_16cuosShmInfoEx_stEjj
000000000031bd58 g     O .bss	0000000000000008              .hidden _ZN6cudart29__fun_cuStreamBeginCapture_v2E
000000000006a3e0  w    O .rodata	00000000000000c0              .hidden _ZZN6cudart3setIPNS_12globalModuleEE8get_sizeEjPmE5SIZES
000000000031b7c8 g     O .bss	0000000000000008              .hidden _ZN6cudart24__fun_cuFuncSetAttributeE
000000000005cbc0 g     F .text	0000000000000142              .hidden _ZN6cudart22cuosSocketAcceptClientEPNS_16CUOSserverSocketEPNS_10CUOSsocketE
0000000000057480 g     F .text	00000000000001b5              .hidden cudaGLMapBufferObject
000000000031bbf8 g     O .bss	0000000000000008              .hidden _ZN6cudart42__fun_cuGraphicsVDPAURegisterOutputSurfaceE
000000000031b000  w      .data	0000000000000000              data_start
0000000000051ec0 g     F .text	0000000000000200              .hidden cudaMemsetAsync
0000000000039e30 g     F .text	000000000000027e              .hidden cudaMemcpy2DFromArray
0000000000052c70 g     F .text	0000000000000270              .hidden cudaMemcpyToArrayAsync
000000000031b4c8 g     O .bss	0000000000000008              .hidden _ZN6cudart26__fun_cuDeviceGetAttributeE
000000000005b3c0 g     F .text	0000000000000005              .hidden _ZN6cudart23cuosInterlockedExchangeEPVjj
000000000004d770 g     F .text	000000000000018f              .hidden cudaDeviceSetCacheConfig
000000000031bac0 g     O .bss	0000000000000008              .hidden _ZN6cudart14__fun_cuGLInitE
000000000005cb80 g     F .text	000000000000003f              .hidden _ZN6cudart26cuosNumaGetAllowedNodeMaskEv
0000000000000000       F *UND*	0000000000000000              pthread_condattr_setpshared@@GLIBC_2.2.5
000000000005b490 g     F .text	000000000000002e              .hidden _ZN6cudart14cuosGetCpuTimeEv
00000000000547c0 g     F .text	000000000000023e              .hidden cudaMemset2DAsync_ptsz
0000000000060a60 g     O .rodata	0000000000000004              _IO_stdin_used
000000000031ba80 g     O .bss	0000000000000008              .hidden _ZN6cudart27__fun_cuCtxEnablePeerAccessE
0000000000000000       F *UND*	0000000000000000              realpath@@GLIBC_2.3
0000000000025630 g     F .text	0000000000000107              .hidden _ZN6cudart12contextStateC2EPNS_6deviceEP8CUctx_st
0000000000000000       F *UND*	0000000000000000              pthread_cond_broadcast@@GLIBC_2.3.2
000000000005dc50 g     F .text	0000000000000005              .hidden _ZN6cudart19cuosFflush_internalEP8_IO_FILE
000000000001dd50 g     F .text	00000000000031c6              .hidden _ZN6cudart11globalState27initializeDriverEntrypointsEv
0000000000025a80 g     F .text	000000000000007b              .hidden _ZN6cudart12contextState18setupBoundTexturesEv
000000000031bbc8 g     O .bss	0000000000000008              .hidden _ZN6cudart26__fun_cuProfilerInitializeE
0000000000000000       F *UND*	0000000000000000              write@@GLIBC_2.2.5
000000000031bb10 g     O .bss	0000000000000008              .hidden _ZN6cudart33__fun_cuGLSetBufferObjectMapFlagsE
000000000031bd80 g     O .bss	0000000000000008              .hidden _ZN6cudart30__fun_cuStreamIsCapturing_ptszE
0000000000000000       F *UND*	0000000000000000              strchr@@GLIBC_2.2.5
000000000003dca0 g     F .text	00000000000001b5              .hidden cudaGraphMemcpyNodeSetParams
00000000000253a0 g     F .text	0000000000000030              .hidden _ZN6cudart11cudaTextureC1EPK16textureReferenceibbP11CUtexref_stPNS_12contextStateE
000000000004ee40 g     F .text	00000000000001c2              .hidden cudaStreamEndCapture_ptsz
000000000031b850 g     O .bss	0000000000000008              .hidden _ZN6cudart27__fun_cuTexRefSetFilterModeE
000000000005dc40 g     F .text	0000000000000003              .hidden _ZN6cudart17cuosSetThreadNameEPNS_13CUOSthread_stEPKc
000000000031b818 g     O .bss	0000000000000008              .hidden _ZN6cudart21__fun_cuTexRefDestroyE
0000000000047460 g     F .text	00000000000001f4              .hidden cudaOccupancyMaxActiveBlocksPerMultiprocessor
000000000031bb18 g     O .bss	0000000000000008              .hidden _ZN6cudart31__fun_cuGraphicsGLRegisterImageE
0000000000046cf0 g     F .text	00000000000001b5              .hidden cudaMallocHost
000000000031b048 g     O .data	0000000000000008              .hidden _ZN6cudart16cudartErrorTableE
000000000004b250 g     F .text	00000000000001b5              .hidden cudaGetDeviceProperties
000000000005e850 g     F .text	0000000000000007              .hidden _ZN6cudart16cuosThreadCreateEPPNS_13CUOSthread_stEPFiPvES3_
000000000004ea80 g     F .text	00000000000001e5              .hidden cudaStreamGetCaptureInfo_ptsz
000000000001dc50 g     F .text	000000000000007d              .hidden _ZN6cudart11globalStateC1Ev
0000000000040440 g     F .text	00000000000001b5              .hidden cudaGetTextureAlignmentOffset
000000000004f3b0 g     F .text	00000000000001ff              .hidden cudaStreamAttachMemAsync_ptsz
0000000000058a60 g     F .text	00000000000001f4              .hidden cudaEGLStreamProducerConnect
000000000031bd50 g     O .bss	0000000000000008              .hidden _ZN6cudart31__fun_cuStreamBeginCapture_ptszE
000000000000df40 g     F .text	000000000000000f              .hidden _ZN6cudart23toRuntimeHostNodeParamsEPK24CUDA_HOST_NODE_PARAMS_stP18cudaHostNodeParams
000000000031b670 g     O .bss	0000000000000008              .hidden _ZN6cudart14__fun_cuMemcpyE
000000000031b6b0 g     O .bss	0000000000000008              .hidden _ZN6cudart21__fun_cuMemcpyHtoD_v2E
0000000000000000       F *UND*	0000000000000000              rmdir@@GLIBC_2.2.5
0000000000045080 g     F .text	00000000000001d8              .hidden cudaGetMipmappedArrayLevel
00000000000577d0 g     F .text	000000000000018f              .hidden cudaGLSetGLDevice
000000000005f030 g     F .text	0000000000000092              .hidden _ZN6cudart16cuosGetLocalTimeEPNS_15cuosLocalTime_sE
000000000005f360 g     F .text	0000000000000015              .hidden _ZN6cudart19cuosThreadIsCurrentEPNS_13CUOSthread_stE
000000000004f910 g     F .text	00000000000001ff              .hidden cudaStreamAddCallback_ptsz
000000000031b940 g     O .bss	0000000000000008              .hidden _ZN6cudart36__fun_cuLaunchCooperativeKernel_ptszE
0000000000000000  w    F *UND*	0000000000000000              __cxa_finalize@@GLIBC_2.2.5
0000000000000000       F *UND*	0000000000000000              strlen@@GLIBC_2.2.5
0000000000000000       F *UND*	0000000000000000              pthread_mutexattr_destroy@@GLIBC_2.2.5
000000000031bab0 g     O .bss	0000000000000008              .hidden _ZN6cudart25__fun_cuIpcCloseMemHandleE
000000000005e610 g     F .text	0000000000000030              .hidden _ZN6cudart15cuosGetFileSizeEPKc
000000000031b250 g     O .bss	0000000000000004              __CNPRT_VERSION_NUMBER__
0000000000021f80 g     F .text	0000000000000c80              .hidden _ZN6cudart9deviceMgr16enumerateDevicesEv
00000000000517c0 g     F .text	00000000000001a4              .hidden cudaStreamQuery
00000000000252c0 g     F .text	0000000000000077              .hidden _ZN6cudart6moduleC1EPNS_12contextStateEP8CUmod_st14cudaError_enum
0000000000000000       F *UND*	0000000000000000              mkdir@@GLIBC_2.2.5
000000000005e930 g     F .text	000000000000010a              .hidden _ZN6cudart12cuosCondWaitEP14pthread_cond_tP15pthread_mutex_tj
0000000000049390 g     F .text	000000000000019a              .hidden cudaEventSynchronize
000000000003d340 g     F .text	00000000000001b5              .hidden cudaGraphHostNodeGetParams
0000000000047d40 g     F .text	00000000000001b5              .hidden cudaFuncSetSharedMemConfig
000000000031b978 g     O .bss	0000000000000008              .hidden _ZN6cudart18__fun_cuEventQueryE
0000000000000000       F *UND*	0000000000000000              fchmod@@GLIBC_2.2.5
000000000004b8b0 g     F .text	000000000000016f              .hidden cudaPeekAtLastError
000000000001cc60 g     F .text	0000000000000004              .hidden _ZN6cudart14GlobalStateRefC2Ev
00000000000479a0 g     F .text	00000000000001d8              .hidden cudaFuncSetAttribute
000000000031bda0 g     O .bss	0000000000000008              .hidden _ZN6cudart39__fun_cuThreadExchangeStreamCaptureModeE
0000000000000000       F *UND*	0000000000000000              unlink@@GLIBC_2.2.5
0000000000000000       F *UND*	0000000000000000              strncmp@@GLIBC_2.2.5
000000000003b8d0 g     F .text	00000000000001f4              .hidden cudaGraphRemoveDependencies
000000000031bb48 g     O .bss	0000000000000008              .hidden _ZN6cudart37__fun_cuEGLStreamConsumerReleaseFrameE
000000000031b4e8 g     O .bss	0000000000000008              .hidden _ZN6cudart25__fun_cuDeviceGetPCIBusIdE
000000000031b768 g     O .bss	0000000000000008              .hidden _ZN6cudart30__fun_cuMemcpy3DPeerAsync_ptszE
000000000003fd20 g     F .text	00000000000001b5              .hidden cudaGetChannelDesc
0000000000064500 g     O .rodata	0000000000000004              .hidden _ZN6cudart26cudartErrorTableEntryCountE
00000000000601b0 g     F .text	00000000000000df              .hidden _ZN6cudart15cuosShmCreateExEPvPNS_13cuosShmKey_stEmPPNS_16cuosShmInfoEx_stE
0000000000048730 g     F .text	00000000000001b5              .hidden cudaImportExternalSemaphore
00000000000085e4 g     F .text	0000000000000265              main
000000000005b3d0 g     F .text	0000000000000009              .hidden _ZN6cudart32cuosInterlockedCompareExchange64EPVyyy
000000000031ba08 g     O .bss	0000000000000008              .hidden _ZN6cudart22__fun_cuStreamGetFlagsE
0000000000000000       F *UND*	0000000000000000              pthread_join@@GLIBC_2.2.5
0000000000050870 g     F .text	00000000000002e2              .hidden cudaLaunchCooperativeKernel
0000000000000000       F *UND*	0000000000000000              getuid@@GLIBC_2.2.5
0000000000000000       F *UND*	0000000000000000              shm_unlink@@GLIBC_2.2.5
000000000031bb58 g     O .bss	0000000000000008              .hidden _ZN6cudart35__fun_cuEGLStreamProducerDisconnectE
0000000000055080 g     F .text	00000000000002ce              .hidden cudaMemcpy2DFromArrayAsync_ptsz
000000000003beb0 g     F .text	00000000000001d8              .hidden cudaGraphNodeGetDependencies
000000000031baf0 g     O .bss	0000000000000008              .hidden _ZN6cudart38__fun_cuGLMapBufferObjectAsync_v2_ptszE
000000000031b7b8 g     O .bss	0000000000000008              .hidden _ZN6cudart30__fun_cuFuncSetSharedMemConfigE
000000000031b720 g     O .bss	0000000000000008              .hidden _ZN6cudart24__fun_cuMemcpy2DAsync_v2E
000000000005e5f0 g     F .text	000000000000000a              .hidden _ZN6cudart17cuosWriteLockFileEP8_IO_FILEj
000000000003e5b0 g     F .text	0000000000000208              .hidden cudaGraphAddKernelNode
000000000031b6a0 g     O .bss	0000000000000008              .hidden _ZN6cudart23__fun_cuMemcpyPeerAsyncE
000000000031bd70 g     O .bss	0000000000000008              .hidden _ZN6cudart29__fun_cuStreamEndCapture_ptszE
000000000031b788 g     O .bss	0000000000000008              .hidden _ZN6cudart26__fun_cuMemsetD8Async_ptszE
000000000031b8c8 g     O .bss	0000000000000008              .hidden _ZN6cudart25__fun_cuSurfObjectDestroyE
000000000031bc60 g     O .bss	0000000000000008              .hidden _ZN6cudart32__fun_cuGraphKernelNodeSetParamsE
0000000000000000       F *UND*	0000000000000000              getcwd@@GLIBC_2.2.5
0000000000000000       F *UND*	0000000000000000              strncpy@@GLIBC_2.2.5
000000000031b758 g     O .bss	0000000000000008              .hidden _ZN6cudart25__fun_cuMemcpy3DPeer_ptdsE
0000000000059a40 g     F .text	0000000000000029              .hidden _ZN6cudart19cuosNumaIsSupportedEv
000000000005b450 g     F .text	000000000000001b              .hidden _ZN6cudart22cuosFreePhysicalMemoryEv
000000000031b8e0 g     O .bss	0000000000000008              .hidden _ZN6cudart37__fun_cuExternalMemoryGetMappedBufferE
000000000005ed80 g     F .text	0000000000000008              .hidden _ZN6cudart15cuosTlsGetValueEj
000000000004bec0 g     F .text	00000000000001b5              .hidden cudaThreadGetLimit
0000000000000000       F *UND*	0000000000000000              localtime_r@@GLIBC_2.2.5
000000000004bd20 g     F .text	000000000000019a              .hidden cudaThreadGetCacheConfig
0000000000039750 g     F .text	000000000000019a              .hidden cudaMemcpy3D
0000000000025440 g     F .text	000000000000000e              .hidden _ZN6cudart11cudaSurfaceC2EPK16surfaceReferenceibP12CUsurfref_st
000000000031ba30 g     O .bss	0000000000000008              .hidden _ZN6cudart28__fun_cuStreamWaitEvent_ptszE
000000000003e230 g     F .text	00000000000001b5              .hidden cudaGraphKernelNodeSetParams
0000000000000000       F *UND*	0000000000000000              fmin@@GLIBC_2.2.5
0000000000031d80 g     F .text	0000000000000310              .hidden _ZN6cudart19contextStateManager19destroyContextStateEPNS_12contextStateEb
0000000000025740 g     F .text	000000000000000f              .hidden _ZN6cudart11cudaSurface4bindEPK9cudaArrayPK21cudaChannelFormatDesc
0000000000056db0 g     F .text	00000000000001e5              .hidden cudaGLMapBufferObjectAsync
0000000000044980 g     F .text	00000000000001f4              .hidden cudaArrayGetInfo
000000000005bf00 g     F .text	0000000000000086              .hidden _ZN6cudart14cuosEventClearEPNS_9cuosEventE
000000000004a980 g     F .text	0000000000000192              .hidden cudaGetDevice
00000000000393d0 g     F .text	00000000000001d8              .hidden cudaMemset
00000000000217a0 g     F .text	0000000000000655              .hidden _ZN6cudart11globalState13destroyModuleEPNS_12globalModuleE
000000000031bc80 g     O .bss	0000000000000008              .hidden _ZN6cudart26__fun_cuGraphAddMemsetNodeE
000000000031bb78 g     O .bss	0000000000000008              .hidden _ZN6cudart41__fun_cuEGLStreamConsumerConnectWithFlagsE
0000000000000000       F *UND*	0000000000000000              memset@@GLIBC_2.2.5
000000000005f6b0 g     F .text	00000000000001f8              .hidden _ZN6cudart20cuosPipeAcceptClientEPNS_11CUOSpipe_stES1_
0000000000000000       F *UND*	0000000000000000              dlerror@@GLIBC_2.2.5
000000000031b008 g     O .data	0000000000000000              .hidden __dso_handle
0000000000000000       F *UND*	0000000000000000              munmap@@GLIBC_2.2.5
000000000004fb10 g     F .text	00000000000001c2              .hidden cudaStreamEndCapture
00000000000260a0 g     F .text	000000000000010d              .hidden _ZN6cudart12contextState10getSurfaceEPPNS_11cudaSurfaceEPK16surfaceReference9cudaError
000000000005b3e0 g     F .text	0000000000000009              .hidden _ZN6cudart37cuosInterlockedCompareExchangePointerEPVPvS0_S0_
0000000000000000       F *UND*	0000000000000000              pthread_create@@GLIBC_2.2.5
0000000000000000       F *UND*	0000000000000000              fcntl@@GLIBC_2.2.5
000000000031bb90 g     O .bss	0000000000000008              .hidden _ZN6cudart33__fun_cuGraphicsMapResources_ptszE
0000000000000000       F *UND*	0000000000000000              geteuid@@GLIBC_2.2.5
000000000005eb60 g     F .text	0000000000000067              .hidden _ZN6cudart16cuosInitRWLockExEPPvS0_m
000000000004e1c0 g     F .text	00000000000002e2              .hidden cudaLaunchKernel_ptsz
0000000000041a60 g     F .text	00000000000001b5              .hidden cudaDeviceEnablePeerAccess
0000000000060690 g     F .text	0000000000000061              .hidden _ZN6cudart10cuosStrdupEPKc
000000000031bd10 g     O .bss	0000000000000008              .hidden _ZN6cudart31__fun_cuGraphRemoveDependenciesE
0000000000053820 g     F .text	00000000000001c3              .hidden cudaGraphLaunch_ptsz
000000000031bd38 g     O .bss	0000000000000008              .hidden _ZN6cudart24__fun_cuGraphExecDestroyE
000000000005e910 g     F .text	0000000000000015              .hidden _ZN6cudart14cuosCondSignalEP14pthread_cond_t
0000000000047f00 g     F .text	00000000000001b5              .hidden cudaFuncSetCacheConfig
000000000031b9f8 g     O .bss	0000000000000008              .hidden _ZN6cudart25__fun_cuStreamGetPriorityE
000000000031b920 g     O .bss	0000000000000008              .hidden _ZN6cudart32__fun_cuDestroyExternalSemaphoreE
000000000031b800 g     O .bss	0000000000000008              .hidden _ZN6cudart30__fun_cuMipmappedArrayGetLevelE
000000000000df50 g     F .text	0000000000000053              .hidden _ZN6cudart21toCudartGraphNodeTypeE20CUgraphNodeType_enumP17cudaGraphNodeType
0000000000000000       F *UND*	0000000000000000              pthread_key_create@@GLIBC_2.2.5
000000000031bae8 g     O .bss	0000000000000008              .hidden _ZN6cudart33__fun_cuGLMapBufferObjectAsync_v2E
0000000000000000       F *UND*	0000000000000000              shmget@@GLIBC_2.2.5
000000000031b588 g     O .bss	0000000000000008              .hidden _ZN6cudart29__fun_cuCtxSetSharedMemConfigE
000000000003f560 g     F .text	00000000000001b5              .hidden cudaGetTextureObjectResourceDesc
000000000031b6d8 g     O .bss	0000000000000008              .hidden _ZN6cudart26__fun_cuMemcpyDtoH_v2_ptdsE
00000000000562d0 g     F .text	00000000000001d8              .hidden cudaProfilerInitialize
000000000003f8c0 g     F .text	00000000000001f4              .hidden cudaCreateTextureObject
0000000000035970 g     F .text	000000000000008d              .hidden _ZN6cudart11arrayHelper9getExtentEPK9cudaArrayP10cudaExtent
0000000000040600 g     F .text	000000000000019a              .hidden cudaUnbindTexture
000000000031b680 g     O .bss	0000000000000008              .hidden _ZN6cudart19__fun_cuMemcpyAsyncE
000000000004acb0 g     F .text	00000000000001b5              .hidden cudaChooseDevice
0000000000049530 g     F .text	000000000000019a              .hidden cudaEventQuery
000000000005e340 g     F .text	0000000000000012              .hidden _ZN6cudart14cuosShmDestroyEPv
0000000000000000       F *UND*	0000000000000000              vsnprintf@@GLIBC_2.2.5
000000000031b980 g     O .bss	0000000000000008              .hidden _ZN6cudart24__fun_cuEventSynchronizeE
0000000000044310 g     F .text	0000000000000252              .hidden cudaMemcpy2D_ptds
0000000000049a30 g     F .text	000000000000019a              .hidden cudaThreadExchangeStreamCaptureMode
000000000031b778 g     O .bss	0000000000000008              .hidden _ZN6cudart24__fun_cuMemsetD8_v2_ptdsE
000000000002fc40 g     F .text	000000000000006b              .hidden _ZN6cudart19contextStateManager21tryInitPrimaryContextEPNS_6deviceE
0000000000000000       F *UND*	0000000000000000              sem_trywait@@GLIBC_2.2.5
000000000005ecd0 g     F .text	0000000000000082              .hidden _ZN6cudart9cuosSleepEj
000000000031b770 g     O .bss	0000000000000008              .hidden _ZN6cudart19__fun_cuMemsetD8_v2E
000000000031b608 g     O .bss	0000000000000008              .hidden _ZN6cudart23__fun_cuMemAllocManagedE
0000000000000000       F *UND*	0000000000000000              sysconf@@GLIBC_2.2.5
000000000031b540 g     O .bss	0000000000000008              .hidden _ZN6cudart17__fun_cuCtxDetachE
0000000000040280 g     F .text	00000000000001b5              .hidden cudaGetTextureReference
000000000031ba40 g     O .bss	0000000000000008              .hidden _ZN6cudart30__fun_cuStreamAddCallback_ptszE
000000000031bbf0 g     O .bss	0000000000000008              .hidden _ZN6cudart41__fun_cuGraphicsVDPAURegisterVideoSurfaceE
0000000000000000       F *UND*	0000000000000000              calloc@@GLIBC_2.2.5
000000000031bb70 g     O .bss	0000000000000008              .hidden _ZN6cudart41__fun_cuGraphicsResourceGetMappedEglFrameE
000000000005b260 g     F .text	0000000000000094              .hidden _ZN6cudart20cuosInterlockedAnd64EPVyy
00000000000597a0 g     F .text	00000000000001d8              .hidden cudaVDPAUSetVDPAUDevice
0000000000050680 g     F .text	00000000000001e5              .hidden cudaLaunchHostFunc
000000000000889b g     F .text	0000000000000156              _Z37__device_stub__Z14cuda_reductionPdiS_PdiS_
0000000000000000       F *UND*	0000000000000000              strncat@@GLIBC_2.2.5
000000000031b010  w    O .data	0000000000000008              .hidden DW.ref.__gxx_personality_v0
0000000000057640 g     F .text	000000000000018f              .hidden cudaGLRegisterBufferObject
000000000005e3b0 g     F .text	0000000000000136              .hidden _ZN6cudart14cuosUnlockFileEP8_IO_FILE
0000000000025340 g     F .text	0000000000000010              .hidden _ZN6cudart12cudaVariableC2EPvP8CUmod_stPKcb
000000000031b6b8 g     O .bss	0000000000000008              .hidden _ZN6cudart26__fun_cuMemcpyHtoD_v2_ptdsE
0000000000051000 g     F .text	00000000000001ff              .hidden cudaStreamAttachMemAsync
000000000031b5d8 g     O .bss	0000000000000008              .hidden _ZN6cudart18__fun_cuLinkCreateE
000000000031b8e8 g     O .bss	0000000000000008              .hidden _ZN6cudart45__fun_cuExternalMemoryGetMappedMipmappedArrayE
00000000000515f0 g     F .text	00000000000001c3              .hidden cudaEventRecord
000000000031b8f0 g     O .bss	0000000000000008              .hidden _ZN6cudart29__fun_cuDestroyExternalMemoryE
000000000031baa0 g     O .bss	0000000000000008              .hidden _ZN6cudart23__fun_cuIpcGetMemHandleE
000000000031b568 g     O .bss	0000000000000008              .hidden _ZN6cudart25__fun_cuCtxGetCacheConfigE
0000000000059040 g     F .text	000000000000019a              .hidden cudaEGLStreamConsumerDisconnect
0000000000025450 g     F .text	000000000000000e              .hidden _ZN6cudart11cudaSurfaceC1EPK16surfaceReferenceibP12CUsurfref_st
000000000005e640 g     F .text	0000000000000014              .hidden _ZN6cudart10cuosGetcwdEPcm
000000000031bac8 g     O .bss	0000000000000008              .hidden _ZN6cudart20__fun_cuGLGetDevicesE
0000000000044ee0 g     F .text	000000000000019a              .hidden cudaMemcpy3D_ptds
000000000004a7c0 g     F .text	00000000000001b5              .hidden cudaSetValidDevices
000000000031b968 g     O .bss	0000000000000008              .hidden _ZN6cudart19__fun_cuEventRecordE
000000000031b6c8 g     O .bss	0000000000000008              .hidden _ZN6cudart31__fun_cuMemcpyHtoDAsync_v2_ptszE
000000000031b9f0 g     O .bss	0000000000000008              .hidden _ZN6cudart32__fun_cuStreamCreateWithPriorityE
0000000000049890 g     F .text	000000000000019a              .hidden cudaEventCreate
0000000000025370 g     F .text	0000000000000030              .hidden _ZN6cudart11cudaTextureC2EPK16textureReferenceibbP11CUtexref_stPNS_12contextStateE
000000000000ded0 g     F .text	000000000000002d              .hidden _ZN6cudart24toDriverMemsetNodeParamsEPK16cudaMemsetParamsP26CUDA_MEMSET_NODE_PARAMS_st
0000000000053dd0 g     F .text	0000000000000270              .hidden cudaMemcpyFromArrayAsync_ptsz
000000000004b070 g     F .text	00000000000001d8              .hidden cudaDeviceGetAttribute
0000000000000000       F *UND*	0000000000000000              sscanf@@GLIBC_2.2.5
0000000000051c80 g     F .text	000000000000023e              .hidden cudaMemset2DAsync
000000000004cbd0 g     F .text	000000000000030d              .hidden cudaIpcOpenEventHandle
00000000000580d0 g     F .text	00000000000001d8              .hidden cudaGraphicsEGLRegisterImage
0000000000060900  w    F .text	000000000000001a              .hidden _ZN6cudart3setINS_3mapIPKvPNS_17cudaEntryFunctionEE5entryEE8get_sizeEjPm
00000000000572f0 g     F .text	000000000000018f              .hidden cudaGLUnmapBufferObject
000000000005dc00 g     F .text	000000000000000d              .hidden _ZN6cudart11cuosShmSizeEPKNS_14cuosShmInfo_stE
000000000031bcf0 g     O .bss	0000000000000008              .hidden _ZN6cudart21__fun_cuGraphGetEdgesE
0000000000060a50 g     F .fini	0000000000000000              _fini
0000000000021f50 g     F .text	0000000000000028              .hidden _ZN6cudart24__loadDriverInternalUtilEv
00000000000529a0 g     F .text	00000000000002ce              .hidden cudaMemcpy2DToArrayAsync
0000000000000000       F *UND*	0000000000000000              open@@GLIBC_2.2.5
000000000005a480 g     F .text	0000000000000208              .hidden _ZN6cudart18cuosSocketRecvCredEPNS_10CUOSsocketEPiPjS3_
000000000031ba00 g     O .bss	0000000000000008              .hidden _ZN6cudart30__fun_cuStreamGetPriority_ptszE
0000000000000000       F *UND*	0000000000000000              dlclose@@GLIBC_2.2.5
0000000000047b80 g     F .text	00000000000001b5              .hidden cudaFuncGetAttributes
000000000031ba10 g     O .bss	0000000000000008              .hidden _ZN6cudart20__fun_cuStreamGetCtxE
0000000000000000       F *UND*	0000000000000000              pthread_rwlock_destroy@@GLIBC_2.2.5
000000000031b790 g     O .bss	0000000000000008              .hidden _ZN6cudart21__fun_cuMemsetD2D8_v2E
0000000000059f90 g     F .text	0000000000000051              .hidden _ZN6cudart16cuosEventDestroyEPNS_9cuosEventE
000000000005c620 g     F .text	0000000000000556              .hidden _ZN6cudart8cuosInitEv
000000000031bc38 g     O .bss	0000000000000008              .hidden _ZN6cudart22__fun_cuGetErrorStringE
000000000005ffb0 g     F .text	00000000000000bd              .hidden _ZN6cudart13cuosShmOpenExEPvPNS_13cuosShmKey_stEmPPNS_16cuosShmInfoEx_stE
000000000004feb0 g     F .text	00000000000001c3              .hidden cudaGraphLaunch
000000000003eb20 g     F .text	0000000000000192              .hidden cudaDriverGetVersion
0000000000000000       F *UND*	0000000000000000              pthread_mutex_unlock@@GLIBC_2.2.5
0000000000055d20 g     F .text	00000000000001c3              .hidden cudaMemcpy3DPeerAsync_ptsz
000000000003d500 g     F .text	0000000000000208              .hidden cudaGraphAddHostNode
000000000003bcd0 g     F .text	00000000000001d8              .hidden cudaGraphNodeGetDependentNodes
0000000000029620 g     F .text	00000000000002ce              .hidden _ZN6cudart12contextState14deleteVariableEPKv
0000000000008543 g     F .text	0000000000000042              _Z5fRanddd
000000000031bcd0 g     O .bss	0000000000000008              .hidden _ZN6cudart28__fun_cuGraphNodeFindInCloneE
0000000000044570 g     F .text	0000000000000208              .hidden cudaMemcpyPeer
0000000000000000       F *UND*	0000000000000000              sem_post@@GLIBC_2.2.5
000000000031bbb0 g     O .bss	0000000000000008              .hidden _ZN6cudart41__fun_cuGraphicsSubResourceGetMappedArrayE
000000000001cbf0 g     F .text	0000000000000062              .hidden _ZN6cudart12globalModuleC1EPv
000000000004de20 g     F .text	00000000000001e5              .hidden cudaStreamWaitEvent_ptsz
000000000031b5c8 g     O .bss	0000000000000008              .hidden _ZN6cudart23__fun_cuModuleGetTexRefE
000000000031b688 g     O .bss	0000000000000008              .hidden _ZN6cudart24__fun_cuMemcpyAsync_ptszE
0000000000000000       F *UND*	0000000000000000              pthread_rwlock_wrlock@@GLIBC_2.2.5
000000000031b6f0 g     O .bss	0000000000000008              .hidden _ZN6cudart21__fun_cuMemcpyDtoD_v2E
0000000000056fa0 g     F .text	00000000000001b5              .hidden cudaGLSetBufferObjectMapFlags
000000000005e660 g     F .text	0000000000000026              .hidden _ZN6cudart18cuosRmdirRecursiveEPKc
00000000000253d0 g     F .text	0000000000000012              .hidden _ZN6cudart11cudaTexture10setStorageEb
000000000005f390 g     F .text	00000000000000ed              .hidden _ZN6cudart23cuosVirtualAllocInRangeEPvmjjS0_S0_m
000000000031b840 g     O .bss	0000000000000008              .hidden _ZN6cudart23__fun_cuTexRefSetFormatE
000000000031b718 g     O .bss	0000000000000008              .hidden _ZN6cudart33__fun_cuMemcpy2DUnaligned_v2_ptdsE
000000000005e710 g     F .text	0000000000000005              .hidden _ZN6cudart22cuosGetCurrentThreadIdEv
0000000000043060 g     F .text	00000000000002e0              .hidden cudaMemset3D_ptds
000000000004d900 g     F .text	00000000000001b5              .hidden cudaDeviceGetStreamPriorityRange
000000000004d0a0 g     F .text	00000000000001d8              .hidden cudaDeviceGetPCIBusId
0000000000043730 g     F .text	0000000000000208              .hidden cudaMemcpyFromSymbol_ptds
000000000031b830 g     O .bss	0000000000000008              .hidden _ZN6cudart27__fun_cuTexRefSetAddress_v2E
000000000031b700 g     O .bss	0000000000000008              .hidden _ZN6cudart26__fun_cuMemcpyDtoDAsync_v2E
0000000000045750 g     F .text	0000000000000218              .hidden cudaMalloc3D
0000000000060960  w    F .text	000000000000001a              .hidden _ZN6cudart3setINS_3mapIPK16surfaceReferencePNS_11cudaSurfaceEE5entryEE8get_sizeEjPm
000000000005b570 g     F .text	0000000000000061              .hidden _ZN6cudart21cuosSetThreadAffinityEPNS_13CUOSthread_stEPKm
000000000001d800 g     F .text	000000000000000c              .hidden _ZN6cudart19globalStateAutoLockD2Ev
0000000000000000       F *UND*	0000000000000000              sendmsg@@GLIBC_2.2.5
000000000005e6e0 g     F .text	000000000000002c              .hidden _ZN6cudart9cuosMkdirEPKc
000000000031ba18 g     O .bss	0000000000000008              .hidden _ZN6cudart27__fun_cuStreamGetFlags_ptszE
0000000000025c90 g     F .text	00000000000000ee              .hidden _ZN6cudart12contextState11getVariableEPPNS_12cudaVariableEPKv9cudaError
000000000031b9b8 g     O .bss	0000000000000008              .hidden _ZN6cudart25__fun_cuStreamWaitValue64E
00000000000400a0 g     F .text	00000000000001d8              .hidden cudaBindSurfaceToArray
000000000031b908 g     O .bss	0000000000000008              .hidden _ZN6cudart42__fun_cuSignalExternalSemaphoresAsync_ptszE
000000000005ae30 g     F .text	0000000000000007              .hidden _ZN6cudart15cuosEventCreateEPNS_9cuosEventE
000000000031b5e8 g     O .bss	0000000000000008              .hidden _ZN6cudart19__fun_cuLinkAddFileE
000000000003c810 g     F .text	00000000000001d8              .hidden cudaGraphNodeFindInClone
000000000005ef10 g     F .text	0000000000000029              .hidden _ZN6cudart11cuosMadviseEPvmj
000000000031bcf8 g     O .bss	0000000000000008              .hidden _ZN6cudart32__fun_cuGraphNodeGetDependenciesE
0000000000049010 g     F .text	00000000000001d8              .hidden cudaEventElapsedTime
000000000031bc90 g     O .bss	0000000000000008              .hidden _ZN6cudart32__fun_cuGraphMemsetNodeSetParamsE
000000000031bc58 g     O .bss	0000000000000008              .hidden _ZN6cudart32__fun_cuGraphKernelNodeGetParamsE
0000000000000000       F *UND*	0000000000000000              memcpy@@GLIBC_2.14
0000000000053be0 g     F .text	00000000000001e5              .hidden cudaGraphicsMapResources
0000000000000000       F *UND*	0000000000000000              shmctl@@GLIBC_2.2.5
000000000031b4e0 g     O .bss	0000000000000008              .hidden _ZN6cudart27__fun_cuDeviceGetByPCIBusIdE
000000000004a2f0 g     F .text	000000000000019a              .hidden cudaStreamCreate
000000000005a820 g     F .text	00000000000000d8              .hidden _ZN6cudart29cuosSocketCreateConnectedPairEPNS_10CUOSsocketES1_
000000000031b828 g     O .bss	0000000000000008              .hidden _ZN6cudart31__fun_cuTexRefSetMipmappedArrayE
0000000000000000       F *UND*	0000000000000000              connect@@GLIBC_2.2.5
000000000031bd40 g     O .bss	0000000000000008              .hidden _ZN6cudart20__fun_cuGraphDestroyE
000000000005b400 g     F .text	0000000000000005              .hidden _ZN6cudart20cuosGetProcCoreCountEv
000000000031bcb0 g     O .bss	0000000000000008              .hidden _ZN6cudart30__fun_cuGraphAddChildGraphNodeE
000000000031ba50 g     O .bss	0000000000000008              .hidden _ZN6cudart30__fun_cuStreamSynchronize_ptszE
000000000004c240 g     F .text	0000000000000172              .hidden cudaThreadSynchronize
00000000000544b0 g     F .text	000000000000030f              .hidden cudaMemset3DAsync_ptsz
000000000005e290 g     F .text	0000000000000051              .hidden _ZN6cudart14cuosShmIsOwnerEPNS_16cuosShmInfoEx_stEPi
000000000031b740 g     O .bss	0000000000000008              .hidden _ZN6cudart24__fun_cuMemcpy3DAsync_v2E
000000000031b660 g     O .bss	0000000000000008              .hidden _ZN6cudart27__fun_cuPointerGetAttributeE
0000000000000000       F *UND*	0000000000000000              pthread_mutexattr_setpshared@@GLIBC_2.2.5
000000000031b7c0 g     O .bss	0000000000000008              .hidden _ZN6cudart24__fun_cuFuncGetAttributeE
0000000000000000       F *UND*	0000000000000000              pthread_rwlock_trywrlock@@GLIBC_2.2.5
000000000031b6e0 g     O .bss	0000000000000008              .hidden _ZN6cudart26__fun_cuMemcpyDtoHAsync_v2E
000000000005edd0 g     F .text	00000000000000ec              .hidden _ZN6cudart17cuosKernelIs64BitEv
000000000005ed60 g     F .text	0000000000000018              .hidden _ZN6cudart15cuosTlsSetValueEjPv
0000000000054a00 g     F .text	0000000000000200              .hidden cudaMemsetAsync_ptsz
000000000031bd48 g     O .bss	0000000000000008              .hidden _ZN6cudart26__fun_cuStreamBeginCaptureE
000000000031bcc0 g     O .bss	0000000000000008              .hidden _ZN6cudart25__fun_cuGraphAddEmptyNodeE
000000000003cf70 g     F .text	0000000000000208              .hidden cudaGraphAddChildGraphNode
000000000031bd20 g     O .bss	0000000000000008              .hidden _ZN6cudart24__fun_cuGraphInstantiateE
0000000000000000       F *UND*	0000000000000000              socketpair@@GLIBC_2.2.5
0000000000000000       F *UND*	0000000000000000              __cxa_atexit@@GLIBC_2.2.5
000000000005f500 g     F .text	000000000000001d              .hidden _ZN6cudart17cuosDestroyRWLockEPPv
0000000000025750 g     F .text	0000000000000325              .hidden _ZNK6cudart11cudaTexture12setupTextureEv
0000000000000000       F *UND*	0000000000000000              pthread_self@@GLIBC_2.2.5
00000000000608e0  w    F .text	000000000000001a              .hidden _ZN6cudart3setINS_3mapIPNS_12globalModuleEPNS_6moduleEE5entryEE8get_sizeEjPm
000000000031b4b8 g     O .bss	0000000000000008              .hidden _ZN6cudart21__fun_cuDeviceGetNameE
000000000005b410 g     F .text	000000000000001b              .hidden _ZN6cudart18cuosFreeSwapMemoryEv
0000000000008585 g     F .text	000000000000005f              _Z23generate_random_doublesPdi
000000000002b8d0 g     F .text	000000000000107c              .hidden _ZN6cudart6module6unloadEb
000000000004f760 g     F .text	00000000000001a4              .hidden cudaStreamSynchronize_ptsz
000000000031bc18 g     O .bss	0000000000000008              .hidden _ZN6cudart24__fun_cuMemPrefetchAsyncE
000000000005eb40 g     F .text	0000000000000008              .hidden _ZN6cudart21cuosAcquireWriterLockEPPv
000000000031b668 g     O .bss	0000000000000008              .hidden _ZN6cudart28__fun_cuPointerGetAttributesE
0000000000055620 g     F .text	000000000000029e              .hidden cudaMemcpy2DAsync_ptsz
000000000031b640 g     O .bss	0000000000000008              .hidden _ZN6cudart34__fun_cuMemHostGetDevicePointer_v2E
0000000000000000       F *UND*	0000000000000000              chmod@@GLIBC_2.2.5
000000000031b860 g     O .bss	0000000000000008              .hidden _ZN6cudart32__fun_cuTexRefSetMipmapLevelBiasE
000000000031b890 g     O .bss	0000000000000008              .hidden _ZN6cudart23__fun_cuSurfRefSetArrayE
0000000000042ce0 g     F .text	00000000000001b5              .hidden cudaGetSymbolSize
000000000031bb98 g     O .bss	0000000000000008              .hidden _ZN6cudart30__fun_cuGraphicsUnmapResourcesE
000000000005de00 g     F .text	0000000000000005              .hidden _ZN6cudart10cuosFcloseEP8_IO_FILE
0000000000000000       F *UND*	0000000000000000              strcpy@@GLIBC_2.2.5
000000000006ab60  w    O .rodata	00000000000000c0              .hidden _ZZN6cudart3setINS_3mapIP9CUfunc_stPNS_17cudaEntryFunctionEE5entryEE8get_sizeEjPmE5SIZES
000000000031b5e0 g     O .bss	0000000000000008              .hidden _ZN6cudart19__fun_cuLinkAddDataE
000000000031ba78 g     O .bss	0000000000000008              .hidden _ZN6cudart27__fun_cuDeviceCanAccessPeerE
0000000000050480 g     F .text	0000000000000200              .hidden cudaMemPrefetchAsync
0000000000023440 g     F .text	0000000000000825              .hidden _ZN6cudart11globalStateD1Ev
000000000031b6d0 g     O .bss	0000000000000008              .hidden _ZN6cudart21__fun_cuMemcpyDtoH_v2E
000000000005ead0 g     F .text	0000000000000008              .hidden _ZN6cudart21cuosReleaseReaderLockEPPv
0000000000047250 g     F .text	0000000000000208              .hidden cudaOccupancyMaxActiveBlocksPerMultiprocessorWithFlags
000000000004c080 g     F .text	00000000000001b5              .hidden cudaThreadSetLimit
000000000031b510 g     O .bss	0000000000000008              .hidden _ZN6cudart32__fun_cuDevicePrimaryCtxGetStateE
000000000031bd88 g     O .bss	0000000000000008              .hidden _ZN6cudart28__fun_cuStreamGetCaptureInfoE
0000000000059dd0 g     F .text	0000000000000013              .hidden _ZN6cudart21cuosGetProcessorCountEv
000000000005cd10 g     F .text	0000000000000086              .hidden _ZN6cudart17cuosNumaMovePagesEmPPvPKiPi
000000000031bb60 g     O .bss	0000000000000008              .hidden _ZN6cudart37__fun_cuEGLStreamProducerPresentFrameE
0000000000031090 g     F .text	0000000000000215              .hidden _ZN6cudart19contextStateManager17initDriverContextEv
000000000031b590 g     O .bss	0000000000000008              .hidden _ZN6cudart22__fun_cuCtxSynchronizeE
00000000000644e0 g     O .rodata	0000000000000004              .hidden _ZN6cudart21g_descriptorTableSizeE
0000000000008200 g     F .text	000000000000002b              _start
0000000000043340 g     F .text	0000000000000208              .hidden cudaMemset2D_ptds
000000000004c540 g     F .text	000000000000019a              .hidden cudaIpcCloseMemHandle
000000000004ae70 g     F .text	00000000000001f4              .hidden cudaDeviceGetP2PAttribute
0000000000000000       F *UND*	0000000000000000              _ZStlsISt11char_traitsIcEERSt13basic_ostreamIcT_ES5_PKc@@GLIBCXX_3.4
0000000000000000       F *UND*	0000000000000000              fclose@@GLIBC_2.2.5
0000000000000000       F *UND*	0000000000000000              _Znwm@@GLIBCXX_3.4
000000000031bad0 g     O .bss	0000000000000008              .hidden _ZN6cudart30__fun_cuGLRegisterBufferObjectE
000000000031bbd8 g     O .bss	0000000000000008              .hidden _ZN6cudart20__fun_cuProfilerStopE
0000000000051970 g     F .text	000000000000030f              .hidden cudaMemset3DAsync
000000000031b8b0 g     O .bss	0000000000000008              .hidden _ZN6cudart31__fun_cuTexObjectGetTextureDescE
0000000000042ea0 g     F .text	00000000000001b5              .hidden cudaGetSymbolAddress
000000000031ba58 g     O .bss	0000000000000008              .hidden _ZN6cudart19__fun_cuStreamQueryE
0000000000000000       F *UND*	0000000000000000              __xstat@@GLIBC_2.2.5
0000000000058c60 g     F .text	00000000000001d8              .hidden cudaEGLStreamConsumerReleaseFrame
000000000031bd30 g     O .bss	0000000000000008              .hidden _ZN6cudart24__fun_cuGraphLaunch_ptszE
0000000000060880  w    F .text	000000000000001a              .hidden _ZN6cudart3setIPK16textureReferenceE8get_sizeEjPm
000000000031b6f8 g     O .bss	0000000000000008              .hidden _ZN6cudart26__fun_cuMemcpyDtoD_v2_ptdsE
000000000031b760 g     O .bss	0000000000000008              .hidden _ZN6cudart25__fun_cuMemcpy3DPeerAsyncE
0000000000000000       F *UND*	0000000000000000              _ZdlPvm@@CXXABI_1.3.9
00000000000468f0 g     F .text	0000000000000208              .hidden cudaMallocArray
0000000000060920  w    F .text	000000000000001a              .hidden _ZN6cudart3setINS_3mapIPKvPNS_12cudaVariableEE5entryEE8get_sizeEjPm
00000000000465b0 g     F .text	0000000000000192              .hidden cudaFreeHost
000000000006a560  w    O .rodata	00000000000000c0              .hidden _ZZN6cudart3setINS_3mapIPNS_12globalModuleEPNS_6moduleEE5entryEE8get_sizeEjPmE5SIZES
0000000000000000       F *UND*	0000000000000000              pthread_detach@@GLIBC_2.2.5
0000000000048a90 g     F .text	00000000000001d8              .hidden cudaExternalMemoryGetMappedMipmappedArray
000000000031bd00 g     O .bss	0000000000000008              .hidden _ZN6cudart34__fun_cuGraphNodeGetDependentNodesE
0000000000000000       F *UND*	0000000000000000              fileno@@GLIBC_2.2.5
0000000000000000       F *UND*	0000000000000000              fdopen@@GLIBC_2.2.5
000000000004f5b0 g     F .text	00000000000001a4              .hidden cudaStreamQuery_ptsz
000000000005e360 g     F .text	0000000000000048              .hidden _ZN6cudart13cuosShmCreateEPKcm
0000000000000000       F *UND*	0000000000000000              __fxstat@@GLIBC_2.2.5
0000000000043550 g     F .text	00000000000001d8              .hidden cudaMemset_ptds
0000000000052460 g     F .text	00000000000002ce              .hidden cudaMemcpy2DFromArrayAsync
000000000031b570 g     O .bss	0000000000000008              .hidden _ZN6cudart25__fun_cuCtxSetCacheConfigE
000000000000edb0 g     F .text	000000000000008b              .hidden __cudaRegisterTexture
0000000000026570 g     F .text	0000000000000a29              .hidden _ZN6cudart12contextStateD2Ev
000000000031b558 g     O .bss	0000000000000008              .hidden _ZN6cudart19__fun_cuCtxGetLimitE
0000000000047800 g     F .text	000000000000019a              .hidden cudaSetDoubleForDevice
000000000031bcc8 g     O .bss	0000000000000008              .hidden _ZN6cudart18__fun_cuGraphCloneE
000000000031b5a0 g     O .bss	0000000000000008              .hidden _ZN6cudart22__fun_cuModuleLoadDataE
000000000005acd0 g     F .text	000000000000004d              .hidden _ZN6cudart23cuosEventIsSafeToSignalEPNS_9cuosEventE
000000000002a790 g     F .text	00000000000002ce              .hidden _ZN6cudart12contextState13deleteSurfaceEPK16surfaceReference
000000000031b900 g     O .bss	0000000000000008              .hidden _ZN6cudart37__fun_cuSignalExternalSemaphoresAsyncE
0000000000048e50 g     F .text	00000000000001b5              .hidden cudaImportExternalMemory
000000000031baf8 g     O .bss	0000000000000008              .hidden _ZN6cudart27__fun_cuGLUnmapBufferObjectE
000000000031bc00 g     O .bss	0000000000000008              .hidden _ZN6cudart22__fun_cuGetExportTableE
0000000000060070 g     F .text	000000000000013c              .hidden _ZN6cudart20cuosShmCreateNamedExEPvPKcmPPNS_16cuosShmInfoEx_stE
000000000031b4d0 g     O .bss	0000000000000008              .hidden _ZN6cudart29__fun_cuDeviceGetP2PAttributeE
000000000004c6e0 g     F .text	0000000000000329              .hidden cudaIpcOpenMemHandle
000000000004ec70 g     F .text	00000000000001c2              .hidden cudaStreamIsCapturing_ptsz
0000000000000000       F *UND*	0000000000000000              fseek@@GLIBC_2.2.5
000000000031b878 g     O .bss	0000000000000008              .hidden _ZN6cudart22__fun_cuTexRefSetFlagsE
000000000005af00 g     F .text	000000000000001d              .hidden _ZN6cudart13cuosIpcCreateEPc
0000000000000000       F *UND*	0000000000000000              __stack_chk_fail@@GLIBC_2.4
00000000000077f0 g     F .init	0000000000000000              _init
0000000000063ca4 g     O .rodata	0000000000000004              cudartErrorCnpMapEntryCount
00000000000426a0 g     F .text	0000000000000228              .hidden cudaMemRangeGetAttributes
000000000031bbe0 g     O .bss	0000000000000008              .hidden _ZN6cudart22__fun_cuVDPAUGetDeviceE
000000000031b7e0 g     O .bss	0000000000000008              .hidden _ZN6cudart24__fun_cuArray3DCreate_v2E
0000000000047070 g     F .text	00000000000001d8              .hidden cudaMallocManaged
000000000006ac20  w    O .rodata	00000000000000c0              .hidden _ZZN6cudart3setIPNS_12contextStateEE8get_sizeEjPmE5SIZES
000000000006a7a0  w    O .rodata	00000000000000c0              .hidden _ZZN6cudart3setINS_3mapIPKvPNS_12cudaVariableEE5entryEE8get_sizeEjPmE5SIZES
0000000000000000       F *UND*	0000000000000000              listen@@GLIBC_2.2.5
0000000000000000       F *UND*	0000000000000000              sem_wait@@GLIBC_2.2.5
000000000031b650 g     O .bss	0000000000000008              .hidden _ZN6cudart26__fun_cuMemHostRegister_v2E
00000000000264b0 g     F .text	0000000000000044              .hidden _ZN6cudart12contextState13unbindTextureEPNS_11cudaTextureE
000000000003c290 g     F .text	00000000000001d8              .hidden cudaGraphGetRootNodes
000000000031bd08 g     O .bss	0000000000000008              .hidden _ZN6cudart28__fun_cuGraphAddDependenciesE
000000000031b050 g     O .data	0000000000000008              .hidden _ZN6cudart17cudartErrorValuesE
0000000000025410 g     F .text	0000000000000028              .hidden _ZNK6cudart11cudaTexture25getTextureAlignmentOffsetEPm
000000000031bb00 g     O .bss	0000000000000008              .hidden _ZN6cudart32__fun_cuGLUnmapBufferObjectAsyncE
000000000031b058 g     O .nvFatBinSegment	0000000000000000              .hidden __TMC_END__
000000000031b630 g     O .bss	0000000000000008              .hidden _ZN6cudart19__fun_cuMemFreeHostE
000000000031b5c0 g     O .bss	0000000000000008              .hidden _ZN6cudart26__fun_cuModuleGetGlobal_v2E
000000000005f8b0 g     F .text	0000000000000427              .hidden _ZN6cudart20cuosPipeOpenAsClientEPKcS1_PNS_11CUOSpipe_stE
000000000031b528 g     O .bss	0000000000000008              .hidden _ZN6cudart19__fun_cuCtxGetFlagsE
000000000031bb68 g     O .bss	0000000000000008              .hidden _ZN6cudart36__fun_cuEGLStreamProducerReturnFrameE
000000000000ee40 g     F .text	0000000000000055              .hidden __cudaRegisterHostVar
000000000005a030 g     F .text	0000000000000449              .hidden _ZN6cudart14cuosSocketRecvEPNS_10CUOSsocketEPNS_13CUOSsocketMsgE
000000000031b738 g     O .bss	0000000000000008              .hidden _ZN6cudart24__fun_cuMemcpy3D_v2_ptdsE
0000000000025360 g     F .text	0000000000000010              .hidden _ZN6cudart12cudaVariable10setStorageEb
0000000000000000       F *UND*	0000000000000000              _ZStlsISt11char_traitsIcEERSt13basic_ostreamIcT_ES5_c@@GLIBCXX_3.4
000000000002b600 g     F .text	00000000000002ce              .hidden _ZN6cudart12contextState19deleteEntryFunctionEPKv
0000000000000000       F *UND*	0000000000000000              pthread_mutex_destroy@@GLIBC_2.2.5
0000000000056bb0 g     F .text	00000000000001f4              .hidden cudaGLGetDevices
00000000000428d0 g     F .text	0000000000000208              .hidden cudaMemRangeGetAttribute
0000000000000000       F *UND*	0000000000000000              fflush@@GLIBC_2.2.5
0000000000049d90 g     F .text	00000000000001b5              .hidden cudaStreamGetPriority_ptsz
0000000000041390 g     F .text	00000000000001d8              .hidden cudaGraphicsResourceGetMappedPointer
0000000000000000       F *UND*	0000000000000000              fopen@@GLIBC_2.2.5
0000000000038a20 g     F .text	00000000000001b5              .hidden cudaDeviceSetLimit
000000000031b508 g     O .bss	0000000000000008              .hidden _ZN6cudart32__fun_cuDevicePrimaryCtxSetFlagsE
000000000004f010 g     F .text	00000000000001c2              .hidden cudaStreamBeginCapture_ptsz
000000000005ef40 g     F .text	0000000000000047              .hidden _ZN6cudart18cuosVirtualProtectEPvmj
0000000000000000       F *UND*	0000000000000000              free@@GLIBC_2.2.5
000000000005e8c0 g     F .text	0000000000000005              .hidden _ZN6cudart13cuosProcessIdEv
000000000031bab8 g     O .bss	0000000000000008              .hidden _ZN6cudart22__fun_cuGLCtxCreate_v2E
000000000005b370 g     F .text	0000000000000011              .hidden _ZN6cudart26cuosInterlockedDecrement64EPVy
00000000000491f0 g     F .text	000000000000019a              .hidden cudaEventDestroy
000000000031b6a8 g     O .bss	0000000000000008              .hidden _ZN6cudart28__fun_cuMemcpyPeerAsync_ptszE
000000000031bb38 g     O .bss	0000000000000008              .hidden _ZN6cudart35__fun_cuEGLStreamConsumerDisconnectE
00000000000567d0 g     F .text	00000000000001d8              .hidden cudaGraphicsGLRegisterBuffer
000000000031b710 g     O .bss	0000000000000008              .hidden _ZN6cudart28__fun_cuMemcpy2DUnaligned_v2E
00000000000254f0 g     F .text	0000000000000088              .hidden _ZN6cudart12contextState18removeBoundTextureEPNS_11cudaTextureE
0000000000000000       F *UND*	0000000000000000              madvise@@GLIBC_2.2.5
000000000003b000 g     F .text	000000000000019a              .hidden cudaGraphDestroy
000000000003ecc0 g     F .text	00000000000001b5              .hidden cudaGetSurfaceObjectResourceDesc
000000000003c650 g     F .text	00000000000001b5              .hidden cudaGraphNodeGetType
000000000031b848 g     O .bss	0000000000000008              .hidden _ZN6cudart28__fun_cuTexRefSetAddressModeE
000000000005aab0 g     F .text	000000000000009b              .hidden _ZN6cudart22cuosLinuxKernelVersionEPiS0_S0_
0000000000000000       F *UND*	0000000000000000              pthread_cond_init@@GLIBC_2.3.2
000000000031b520 g     O .bss	0000000000000008              .hidden _ZN6cudart20__fun_cuCtxCreate_v2E
000000000004b730 g     F .text	0000000000000177              .hidden cudaGetErrorName
000000000031b958 g     O .bss	0000000000000008              .hidden _ZN6cudart27__fun_cuLaunchHostFunc_ptszE
0000000000000000       F *UND*	0000000000000000              exit@@GLIBC_2.2.5
000000000031bce0 g     O .bss	0000000000000008              .hidden _ZN6cudart21__fun_cuGraphGetNodesE
0000000000000000       F *UND*	0000000000000000              getenv@@GLIBC_2.2.5
00000000000386a0 g     F .text	00000000000001b5              .hidden cudaStreamGetPriority
000000000003b340 g     F .text	00000000000001d8              .hidden cudaGraphExecKernelNodeSetParams
0000000000060290 g     F .text	0000000000000320              .hidden _ZN6cudart25cuosVirtualReserveInRangeEmPvS0_m
000000000031b8a0 g     O .bss	0000000000000008              .hidden _ZN6cudart24__fun_cuTexObjectDestroyE
000000000005b470 g     F .text	000000000000001b              .hidden _ZN6cudart23cuosTotalPhysicalMemoryEv
000000000031b8a8 g     O .bss	0000000000000008              .hidden _ZN6cudart32__fun_cuTexObjectGetResourceDescE
000000000005f180 g     F .text	00000000000001de              .hidden _ZN6cudart18cuosPipeCreatePairEPNS_11CUOSpipe_stES1_
000000000005dd60 g     F .text	0000000000000062              .hidden _ZN6cudart9cuosFreadEP8_IO_FILEPvmPm
000000000031b600 g     O .bss	0000000000000008              .hidden _ZN6cudart21__fun_cuMemGetInfo_v2E
000000000005f560 g     F .text	0000000000000086              .hidden _ZN6cudart14cuosInitRWLockEPPv
000000000005b300 g     F .text	000000000000006a              .hidden _ZN6cudart18cuosInterlockedAndEPVjj
0000000000045d10 g     F .text	000000000000019a              .hidden cudaHostUnregister
000000000006aaa0  w    O .rodata	00000000000000c0              .hidden _ZZN6cudart3setIPKvE8get_sizeEjPmE5SIZES
0000000000053180 g     F .text	000000000000023e              .hidden cudaMemcpyFromSymbolAsync
000000000006a4a0  w    O .rodata	00000000000000c0              .hidden _ZZN6cudart3setIPNS_6moduleEE8get_sizeEjPmE5SIZES
000000000031b240 g     O .bss	0000000000000008              cudartErrorTable
000000000003e980 g     F .text	0000000000000192              .hidden cudaRuntimeGetVersion
000000000005e6a0 g     F .text	0000000000000015              .hidden _ZN6cudart6cuosRmEPKc
000000000031b4a0 g     O .bss	0000000000000008              .hidden _ZN6cudart12__fun_cuInitE
000000000005eed0 g     F .text	0000000000000016              .hidden _ZN6cudart15cuosFreeLibraryEPv
0000000000043940 g     F .text	0000000000000208              .hidden cudaMemcpyToSymbol_ptds
00000000000542b0 g     F .text	0000000000000200              .hidden cudaMemPrefetchAsync_ptsz
0000000000000000       F *UND*	0000000000000000              nftw@@GLIBC_2.3.3
000000000003c9f0 g     F .text	00000000000001b5              .hidden cudaGraphClone
000000000031bc20 g     O .bss	0000000000000008              .hidden _ZN6cudart29__fun_cuMemPrefetchAsync_ptszE
0000000000025460 g     F .text	0000000000000012              .hidden _ZN6cudart11cudaSurface10setStorageEb
000000000005dbe0 g     F .text	0000000000000009              .hidden _ZN6cudart17cuosThreadIdEqualEmm
000000000031b0a0 g     O .bss	0000000000000110              _ZSt4cout@@GLIBCXX_3.4
0000000000000000       F *UND*	0000000000000000              _ZdaPv@@GLIBCXX_3.4
000000000031bd90 g     O .bss	0000000000000008              .hidden _ZN6cudart33__fun_cuStreamGetCaptureInfo_ptszE
0000000000038860 g     F .text	00000000000001b5              .hidden cudaStreamGetFlags
000000000031bc88 g     O .bss	0000000000000008              .hidden _ZN6cudart32__fun_cuGraphMemsetNodeGetParamsE
0000000000020f20 g     F .text	00000000000000bf              .hidden _ZN6cudart11globalState18loadDriverInternalEv
000000000031bb28 g     O .bss	0000000000000008              .hidden _ZN6cudart32__fun_cuGraphicsEGLRegisterImageE
000000000031bb88 g     O .bss	0000000000000008              .hidden _ZN6cudart28__fun_cuGraphicsMapResourcesE
000000000031b8b8 g     O .bss	0000000000000008              .hidden _ZN6cudart36__fun_cuTexObjectGetResourceViewDescE
000000000031bba8 g     O .bss	0000000000000008              .hidden _ZN6cudart38__fun_cuGraphicsResourceSetMapFlags_v2E
0000000000043b50 g     F .text	00000000000002b1              .hidden cudaMemcpy2DArrayToArray_ptds
0000000000041c20 g     F .text	00000000000001d8              .hidden cudaDeviceCanAccessPeer
0000000000000000       F *UND*	0000000000000000              sysinfo@@GLIBC_2.2.5
000000000031b5f0 g     O .bss	0000000000000008              .hidden _ZN6cudart20__fun_cuLinkCompleteE
0000000000048590 g     F .text	000000000000019a              .hidden cudaDestroyExternalSemaphore
000000000005e8d0 g     F .text	0000000000000015              .hidden _ZN6cudart15cuosCondDestroyEP14pthread_cond_t
000000000005b1f0 g     F .text	000000000000006a              .hidden _ZN6cudart17cuosInterlockedOrEPVjj
0000000000033820 g     F .text	0000000000000004              .hidden _ZN6cudart11arrayHelper14getDriverArrayEP9cudaArray
000000000031b7e8 g     O .bss	0000000000000008              .hidden _ZN6cudart31__fun_cuArray3DGetDescriptor_v2E
000000000005af20 g     F .text	000000000000009e              .hidden _ZN6cudart15cuosIpcMakeNameEPcPKcm
000000000003c470 g     F .text	00000000000001d8              .hidden cudaGraphGetNodes
000000000031b610 g     O .bss	0000000000000008              .hidden _ZN6cudart19__fun_cuMemAlloc_v2E
0000000000000000       F *UND*	0000000000000000              pthread_rwlock_rdlock@@GLIBC_2.2.5
0000000000050280 g     F .text	0000000000000200              .hidden cudaSignalExternalSemaphoresAsync
0000000000055350 g     F .text	00000000000002ce              .hidden cudaMemcpy2DToArrayAsync_ptsz
000000000005e880 g     F .text	0000000000000034              .hidden _ZN6cudart20cuosProcessHasExitedEi
000000000003a790 g     F .text	0000000000000252              .hidden cudaMemcpy2D
000000000031b9e0 g     O .bss	0000000000000008              .hidden _ZN6cudart29__fun_cuStreamBatchMemOp_ptszE
000000000031b5d0 g     O .bss	0000000000000008              .hidden _ZN6cudart24__fun_cuModuleGetSurfRefE
0000000000000000       F *UND*	0000000000000000              malloc@@GLIBC_2.2.5
000000000031bc10 g     O .bss	0000000000000008              .hidden _ZN6cudart17__fun_cuMemAdviseE
000000000031b548 g     O .bss	0000000000000008              .hidden _ZN6cudart24__fun_cuCtxGetApiVersionE
000000000031b868 g     O .bss	0000000000000008              .hidden _ZN6cudart33__fun_cuTexRefSetMipmapLevelClampE
0000000000059200 g     F .text	00000000000001d8              .hidden cudaVDPAUGetDevice
0000000000000000       F *UND*	0000000000000000              clock_gettime@@GLIBC_2.2.5
000000000003fee0 g     F .text	00000000000001b5              .hidden cudaGetSurfaceReference
000000000005f380 g     F .text	0000000000000008              .hidden _ZN6cudart21cuosReleaseWriterLockEPPv
0000000000000000       F *UND*	0000000000000000              pthread_rwlock_tryrdlock@@GLIBC_2.2.5
000000000003b730 g     F .text	000000000000019a              .hidden cudaGraphDestroyNode
00000000000599c0 g     F .text	0000000000000017              .hidden _ZN6cudart29cuosSocketGetDataArrivedEventEPNS_10CUOSsocketEPNS_9cuosEventE
000000000031bcd8 g     O .bss	0000000000000008              .hidden _ZN6cudart24__fun_cuGraphNodeGetTypeE
000000000031b9c0 g     O .bss	0000000000000008              .hidden _ZN6cudart30__fun_cuStreamWaitValue64_ptszE
000000000031bc48 g     O .bss	0000000000000008              .hidden _ZN6cudart19__fun_cuGraphCreateE
0000000000000000       F *UND*	0000000000000000              pipe@@GLIBC_2.2.5
000000000000df30 g     F .text	000000000000000f              .hidden _ZN6cudart22toDriverHostNodeParamsEPK18cudaHostNodeParamsP24CUDA_HOST_NODE_PARAMS_st
0000000000000000       F *UND*	0000000000000000              pthread_key_delete@@GLIBC_2.2.5
000000000003e020 g     F .text	0000000000000208              .hidden cudaGraphAddMemcpyNode
000000000031b000 g       .data	0000000000000000              __data_start
00000000000312b0 g     F .text	0000000000000918              .hidden _ZN6cudart19contextStateManager36initRuntimeContextState_nonreentrantEPPNS_12contextStateE
0000000000023cc0 g     F .text	0000000000000825              .hidden _ZN6cudart11globalStateD2Ev
000000000005fe40 g     F .text	0000000000000169              .hidden _ZN6cudart18cuosShmOpenNamedExEPvPKcmPPNS_16cuosShmInfoEx_stE
000000000005cda0 g     F .text	000000000000007a              .hidden _ZN6cudart26cuosNumaGetThreadMemPolicyEPiPm
000000000031b518 g     O .bss	0000000000000008              .hidden _ZN6cudart29__fun_cuDevicePrimaryCtxResetE
000000000031b7b0 g     O .bss	0000000000000008              .hidden _ZN6cudart26__fun_cuFuncSetCacheConfigE
000000000005b540 g     F .text	0000000000000028              .hidden _ZN6cudart23cuosGetCurrentProcessorEv
000000000031bbd0 g     O .bss	0000000000000008              .hidden _ZN6cudart21__fun_cuProfilerStartE
0000000000317f00 g     O .data.rel.ro	0000000000000020              .hidden _ZN6cudart26g_etblToolsRuntimeInstanceE
000000000031c860 g       .bss	0000000000000000              _end
0000000000000000       F *UND*	0000000000000000              ftruncate@@GLIBC_2.2.5
000000000031bc40 g     O .bss	0000000000000008              .hidden _ZN6cudart20__fun_cuGetErrorNameE
0000000000000000       F *UND*	0000000000000000              pthread_mutexattr_init@@GLIBC_2.2.5
0000000000025350 g     F .text	0000000000000010              .hidden _ZN6cudart12cudaVariableC1EPvP8CUmod_stPKcb
0000000000060840  w    F .text	000000000000001a              .hidden _ZN6cudart3setIPNS_12globalModuleEE8get_sizeEjPm
000000000031bae0 g     O .bss	0000000000000008              .hidden _ZN6cudart33__fun_cuGLMapBufferObject_v2_ptdsE
000000000005bf90 g     F .text	0000000000000095              .hidden _ZN6cudart15cuosEventSignalEPNS_9cuosEventE
0000000000059a10 g     F .text	000000000000002e              .hidden _ZN6cudart27cuosNumaGetNumPossibleNodesEv
0000000000051200 g     F .text	00000000000001ff              .hidden cudaStreamAddCallback
000000000005e160 g     F .text	0000000000000048              .hidden _ZN6cudart13cuosPipeWriteEPNS_11CUOSpipe_stEPKvm
000000000031b820 g     O .bss	0000000000000008              .hidden _ZN6cudart22__fun_cuTexRefSetArrayE
000000000006a620  w    O .rodata	00000000000000c0              .hidden _ZZN6cudart3setINS_3mapIPK16surfaceReferencePNS_11cudaSurfaceEE5entryEE8get_sizeEjPmE5SIZES
00000000000569b0 g     F .text	00000000000001f4              .hidden cudaGraphicsGLRegisterImage
0000000000000000       F *UND*	0000000000000000              shmat@@GLIBC_2.2.5
00000000000356e0 g     F .text	00000000000000d5              .hidden _ZN6cudart11arrayHelper11writeDstLocEPK9cudaArrayR16CUDA_MEMCPY3D_st7cudaPos
0000000000040980 g     F .text	00000000000001d8              .hidden cudaBindTextureToArray
000000000031bc68 g     O .bss	0000000000000008              .hidden _ZN6cudart26__fun_cuGraphAddMemcpyNodeE
0000000000000000       F *UND*	0000000000000000              pthread_getspecific@@GLIBC_2.2.5
00000000000539f0 g     F .text	00000000000001e5              .hidden cudaGraphicsUnmapResources
0000000000000000       F *UND*	0000000000000000              usleep@@GLIBC_2.2.5
0000000000000000       F *UND*	0000000000000000              kill@@GLIBC_2.2.5
000000000031b7d0 g     O .bss	0000000000000008              .hidden _ZN6cudart22__fun_cuArrayCreate_v2E
000000000002fa60 g     F .text	0000000000000029              .hidden _ZN6cudart19contextStateManager23isPrimaryCtxInitializedEPNS_6deviceE
0000000000052290 g     F .text	00000000000001c3              .hidden cudaMemcpy3DAsync
0000000000024a50 g     F .text	0000000000000045              .hidden _ZN6cudart14GlobalStateRefD1Ev
00000000000084d4 g     F .text	000000000000006f              _Z13CPU_reductionPdi
000000000006a920  w    O .rodata	00000000000000c0              .hidden _ZZN6cudart3setIPK16surfaceReferenceE8get_sizeEjPmE5SIZES
0000000000022e40 g     F .text	0000000000000522              .hidden _ZN6cudart11globalState24initializeDriverInternalEv
00000000000588c0 g     F .text	000000000000019a              .hidden cudaEGLStreamProducerDisconnect
000000000005b430 g     F .text	000000000000001b              .hidden _ZN6cudart19cuosTotalSwapMemoryEv
00000000000253f0 g     F .text	000000000000001d              .hidden _ZN6cudart11cudaTexture6unbindEv
000000000004d280 g     F .text	00000000000001b5              .hidden cudaDeviceGetByPCIBusId
000000000004bb90 g     F .text	000000000000018f              .hidden cudaThreadSetCacheConfig
000000000005e8f0 g     F .text	0000000000000015              .hidden _ZN6cudart17cuosCondBroadcastEP14pthread_cond_t
000000000005e030 g     F .text	0000000000000092              .hidden _ZN6cudart13cuosPipeCloseEPNS_11CUOSpipe_stE
00000000000609a0  w    F .text	000000000000001a              .hidden _ZN6cudart3setINS_3mapIP9CUfunc_stPNS_17cudaEntryFunctionEE5entryEE8get_sizeEjPm
000000000031b628 g     O .bss	0000000000000008              .hidden _ZN6cudart29__fun_cuMemGetAddressRange_v2E
00000000000496d0 g     F .text	00000000000001b5              .hidden cudaEventCreateWithFlags
000000000031bba0 g     O .bss	0000000000000008              .hidden _ZN6cudart35__fun_cuGraphicsUnmapResources_ptszE
0000000000000000       F *UND*	0000000000000000              read@@GLIBC_2.2.5
000000000031b4f0 g     O .bss	0000000000000008              .hidden _ZN6cudart21__fun_cuDeviceGetUuidE
000000000031b618 g     O .bss	0000000000000008              .hidden _ZN6cudart24__fun_cuMemAllocPitch_v2E
000000000031bc30 g     O .bss	0000000000000008              .hidden _ZN6cudart29__fun_cuMemRangeGetAttributesE
000000000031b6e8 g     O .bss	0000000000000008              .hidden _ZN6cudart31__fun_cuMemcpyDtoHAsync_v2_ptszE
0000000000059ff0 g     F .text	0000000000000018              .hidden _ZN6cudart15cuosSocketCloseEPNS_10CUOSsocketE
000000000004c3c0 g     F .text	0000000000000172              .hidden cudaThreadExit
000000000031b6c0 g     O .bss	0000000000000008              .hidden _ZN6cudart26__fun_cuMemcpyHtoDAsync_v2E
0000000000052ee0 g     F .text	000000000000029e              .hidden cudaMemcpy2DAsync
000000000031b4f8 g     O .bss	0000000000000008              .hidden _ZN6cudart30__fun_cuDevicePrimaryCtxRetainE
000000000031b678 g     O .bss	0000000000000008              .hidden _ZN6cudart19__fun_cuMemcpy_ptdsE
000000000004dac0 g     F .text	000000000000019a              .hidden cudaDeviceGetCacheConfig
000000000031b5b0 g     O .bss	0000000000000008              .hidden _ZN6cudart20__fun_cuModuleUnloadE
0000000000000000       F *UND*	0000000000000000              sched_yield@@GLIBC_2.2.5
000000000031b7f0 g     O .bss	0000000000000008              .hidden _ZN6cudart20__fun_cuArrayDestroyE
000000000005dec0 g     F .text	0000000000000005              .hidden _ZN6cudart11cuosReallocEPvm
0000000000057b50 g     F .text	00000000000001d8              .hidden cudaEventCreateFromEGLSync
0000000000000000       F *UND*	0000000000000000              getpid@@GLIBC_2.2.5
0000000000000000       F *UND*	0000000000000000              dlopen@@GLIBC_2.2.5
000000000031b4c0 g     O .bss	0000000000000008              .hidden _ZN6cudart25__fun_cuDeviceTotalMem_v2E
0000000000000000       F *UND*	0000000000000000              pthread_mutex_lock@@GLIBC_2.2.5
000000000005afc0 g     F .text	000000000000018c              .hidden _ZN6cudart21cuosGetUserDataNVPathEPcm
0000000000041fc0 g     F .text	000000000000027e              .hidden cudaMemcpyArrayToArray_ptds
000000000031ba20 g     O .bss	0000000000000008              .hidden _ZN6cudart24__fun_cuStreamDestroy_v2E
000000000031b780 g     O .bss	0000000000000008              .hidden _ZN6cudart21__fun_cuMemsetD8AsyncE
000000000031b810 g     O .bss	0000000000000008              .hidden _ZN6cudart20__fun_cuTexRefCreateE
0000000000317f20 g     O .data.rel.ro	0000000000000010              .hidden _ZN6cudart27g_etblToolsRuntimeCallbacksE
0000000000000000       F *UND*	0000000000000000              pthread_mutex_init@@GLIBC_2.2.5
0000000000000000       F *UND*	0000000000000000              fread@@GLIBC_2.2.5
0000000000008320 g     F .text	0000000000000050              __cudaRegisterLinkedBinary_38_cuda_device_runtime_compute_75_cpp1_ii_8b1a5d37
000000000031bd98 g     O .bss	0000000000000008              .hidden _ZN6cudart36__fun_cuGraphExecKernelNodeSetParamsE
0000000000054040 g     F .text	0000000000000270              .hidden cudaMemcpyToArrayAsync_ptsz
0000000000057d30 g     F .text	00000000000001d8              .hidden cudaEGLStreamConsumerConnectWithFlags
0000000000000000       F *UND*	0000000000000000              gethostname@@GLIBC_2.2.5
000000000031bce8 g     O .bss	0000000000000008              .hidden _ZN6cudart25__fun_cuGraphGetRootNodesE
0000000000059e10 g     F .text	000000000000011d              .hidden _ZN6cudart26cuosGetLinuxNamespaceInodeEPKcPKiPx
0000000000000000       F *UND*	0000000000000000              opendir@@GLIBC_2.2.5
000000000004d5d0 g     F .text	000000000000019a              .hidden cudaDeviceGetSharedMemConfig
000000000031b7a0 g     O .bss	0000000000000008              .hidden _ZN6cudart23__fun_cuMemsetD2D8AsyncE
000000000031b5f8 g     O .bss	0000000000000008              .hidden _ZN6cudart19__fun_cuLinkDestroyE
000000000031b9a0 g     O .bss	0000000000000008              .hidden _ZN6cudart30__fun_cuStreamWaitValue32_ptszE
0000000000045260 g     F .text	000000000000027b              .hidden cudaMallocMipmappedArray
0000000000000000       F *UND*	0000000000000000              setenv@@GLIBC_2.2.5
0000000000000000       F *UND*	0000000000000000              poll@@GLIBC_2.2.5
000000000003ac00 g     F .text	0000000000000208              .hidden cudaMemcpyToSymbol
000000000005ce20 g     F .text	0000000000000041              .hidden _ZN6cudart29cuosNumaGetNodeIdForProcessorEj
0000000000045b30 g     F .text	00000000000001d5              .hidden cudaHostGetDevicePointer
000000000031b0a0 g       .bss	0000000000000000              __bss_start
0000000000000000       F *UND*	0000000000000000              pthread_cond_timedwait@@GLIBC_2.3.2
000000000003de60 g     F .text	00000000000001b5              .hidden cudaGraphMemcpyNodeGetParams
000000000001a360 g     F .text	0000000000000099              .hidden _ZN6cudart24toDriverKernelNodeParamsEPK20cudaKernelNodeParamsP26CUDA_KERNEL_NODE_PARAMS_st
000000000005ce70 g     F .text	0000000000000073              .hidden _ZN6cudart26cuosNumaSetThreadMemPolicyEiPKm
000000000031b870 g     O .bss	0000000000000008              .hidden _ZN6cudart30__fun_cuTexRefSetMaxAnisotropyE
0000000000050080 g     F .text	0000000000000200              .hidden cudaWaitExternalSemaphoresAsync
000000000005dbf0 g     F .text	000000000000000d              .hidden _ZN6cudart18cuosShmBaseAddressEPKNS_14cuosShmInfo_stE
0000000000045970 g     F .text	00000000000001b5              .hidden cudaHostGetFlags
000000000001d750 g     F .text	000000000000000c              .hidden _ZN6cudart19globalStateAutoLockC2Ev
0000000000000000       F *UND*	0000000000000000              pthread_cond_wait@@GLIBC_2.3.2
000000000004a490 g     F .text	000000000000019a              .hidden cudaGetDeviceFlags
000000000004ab20 g     F .text	000000000000018c              .hidden cudaSetDevice
000000000031bad8 g     O .bss	0000000000000008              .hidden _ZN6cudart28__fun_cuGLMapBufferObject_v2E
000000000031b500 g     O .bss	0000000000000008              .hidden _ZN6cudart31__fun_cuDevicePrimaryCtxReleaseE
000000000031b9c8 g     O .bss	0000000000000008              .hidden _ZN6cudart26__fun_cuStreamWriteValue64E
000000000031b9d0 g     O .bss	0000000000000008              .hidden _ZN6cudart31__fun_cuStreamWriteValue64_ptszE
0000000000056630 g     F .text	0000000000000172              .hidden cudaProfilerStart
0000000000000000       F *UND*	0000000000000000              readdir@@GLIBC_2.2.5
000000000005d970 g     F .text	000000000000026a              .hidden _ZN6cudart22cuosSocketOpenAsClientEPKvmPNS_10CUOSsocketE
0000000000000000       F *UND*	0000000000000000              _ZNSt8ios_base4InitC1Ev@@GLIBCXX_3.4
000000000005bd70 g     F .text	0000000000000093              .hidden _ZN6cudart15cuosSocketWriteEPNS_10CUOSsocketEPKvm
000000000031b988 g     O .bss	0000000000000008              .hidden _ZN6cudart23__fun_cuEventDestroy_v2E
000000000031b918 g     O .bss	0000000000000008              .hidden _ZN6cudart40__fun_cuWaitExternalSemaphoresAsync_ptszE
0000000000044d40 g     F .text	000000000000019a              .hidden cudaMemcpy3DPeer_ptds
000000000031b7d8 g     O .bss	0000000000000008              .hidden _ZN6cudart29__fun_cuArrayGetDescriptor_v2E
000000000003e7c0 g     F .text	00000000000001b5              .hidden cudaGraphCreate
000000000005fce0 g     F .text	0000000000000057              .hidden _ZN6cudart20cuosCondCreateSharedEP14pthread_cond_t
0000000000000000       F *UND*	0000000000000000              feof@@GLIBC_2.2.5
000000000003d8d0 g     F .text	00000000000001b5              .hidden cudaGraphMemsetNodeGetParams
0000000000060940  w    F .text	000000000000001a              .hidden _ZN6cudart3setINS_3mapIPK16textureReferencePNS_11cudaTextureEE5entryEE8get_sizeEjPm
0000000000044b80 g     F .text	00000000000001b5              .hidden cudaMemGetInfo
0000000000032360 g     F .text	0000000000000007              .hidden _ZN6cudart19contextStateManager51destroyContextStateFromDriverContextDestroyCallbackEPNS_12contextStateE
0000000000025ef0 g     F .text	000000000000010d              .hidden _ZN6cudart12contextState10getTextureEPPNS_11cudaTextureEPK16textureReference9cudaError
0000000000041730 g     F .text	000000000000019a              .hidden cudaGraphicsUnregisterResource
000000000003ee80 g     F .text	000000000000019a              .hidden cudaDestroySurfaceObject
000000000005cef0 g     F .text	00000000000009e3              .hidden _ZN6cudart21cuosEventWaitMultipleEPPNS_9cuosEventEiPijj
00000000000609c0 g     F .text	0000000000000065              __libc_csu_init
000000000005f5f0 g     F .text	0000000000000059              .hidden _ZN6cudart14cuosThreadJoinEPNS_13CUOSthread_stEPi
000000000031bb40 g     O .bss	0000000000000008              .hidden _ZN6cudart37__fun_cuEGLStreamConsumerAcquireFrameE
000000000031b730 g     O .bss	0000000000000008              .hidden _ZN6cudart19__fun_cuMemcpy3D_v2E
0000000000000000       F *UND*	0000000000000000              fgetc@@GLIBC_2.2.5
0000000000057160 g     F .text	000000000000018f              .hidden cudaGLUnregisterBufferObject
0000000000000000       F *UND*	0000000000000000              fgets@@GLIBC_2.2.5
000000000004e8b0 g     F .text	00000000000001c3              .hidden cudaEventRecord_ptsz
00000000000357c0 g     F .text	00000000000000d1              .hidden _ZN6cudart11arrayHelper11writeSrcLocEPK9cudaArrayR16CUDA_MEMCPY3D_st7cudaPos
000000000031bb80 g     O .bss	0000000000000008              .hidden _ZN6cudart34__fun_cuGraphicsUnregisterResourceE
00000000000599e0 g     F .text	0000000000000017              .hidden _ZN6cudart27cuosPipeGetDataArrivedEventEPNS_11CUOSpipe_stEPNS_9cuosEventE
000000000031b9e8 g     O .bss	0000000000000008              .hidden _ZN6cudart20__fun_cuStreamCreateE
000000000005ef90 g     F .text	000000000000002a              .hidden _ZN6cudart15cuosVirtualFreeEPvmj
00000000000593e0 g     F .text	00000000000001d8              .hidden cudaGraphicsVDPAURegisterOutputSurface
0000000000048c70 g     F .text	00000000000001d8              .hidden cudaExternalMemoryGetMappedBuffer
000000000005bbb0 g     F .text	000000000000011a              .hidden _ZN6cudart18cuosSocketSendCredEPNS_10CUOSsocketEPiPjS3_
0000000000050e50 g     F .text	00000000000001a4              .hidden cudaStreamSynchronize
000000000031bc98 g     O .bss	0000000000000008              .hidden _ZN6cudart24__fun_cuGraphAddHostNodeE
0000000000041190 g     F .text	00000000000001f4              .hidden cudaGraphicsSubResourceGetMappedArray
0000000000000000       F *UND*	0000000000000000              mprotect@@GLIBC_2.2.5
000000000031b838 g     O .bss	0000000000000008              .hidden _ZN6cudart29__fun_cuTexRefSetAddress2D_v3E
00000000000608a0  w    F .text	000000000000001a              .hidden _ZN6cudart3setIPK16surfaceReferenceE8get_sizeEjPm
0000000000000000       F *UND*	0000000000000000              snprintf@@GLIBC_2.2.5
000000000031b808 g     O .bss	0000000000000008              .hidden _ZN6cudart29__fun_cuMipmappedArrayDestroyE
0000000000059980 g     F .text	0000000000000006              .hidden _ZN6cudart13cuosEventPollEPNS_9cuosEventEPj
000000000031b8c0 g     O .bss	0000000000000008              .hidden _ZN6cudart24__fun_cuSurfObjectCreateE
0000000000041e00 g     F .text	00000000000001b5              .hidden cudaPointerGetAttributes
000000000031ba60 g     O .bss	0000000000000008              .hidden _ZN6cudart24__fun_cuStreamQuery_ptszE
0000000000000000       F *UND*	0000000000000000              closedir@@GLIBC_2.2.5
000000000031b560 g     O .bss	0000000000000008              .hidden _ZN6cudart19__fun_cuCtxSetLimitE
0000000000025b00 g     F .text	0000000000000077              .hidden _ZN6cudart6moduleC2EPNS_12contextStateEP8CUmod_st14cudaError_enum
00000000000407a0 g     F .text	00000000000001d8              .hidden cudaBindTextureToMipmappedArray
0000000000000000       F *UND*	0000000000000000              gettimeofday@@GLIBC_2.2.5
000000000031bcb8 g     O .bss	0000000000000008              .hidden _ZN6cudart35__fun_cuGraphChildGraphNodeGetGraphE
0000000000040b60 g     F .text	0000000000000258              .hidden cudaBindTexture2D
0000000000000000       F *UND*	0000000000000000              pthread_rwlock_unlock@@GLIBC_2.2.5
0000000000000000       F *UND*	0000000000000000              pthread_rwlock_init@@GLIBC_2.2.5
000000000031bd28 g     O .bss	0000000000000008              .hidden _ZN6cudart19__fun_cuGraphLaunchE
0000000000008ba6  w    F .text	0000000000000031              _ZN4dim3C2Ejjj
0000000000000000       F *UND*	0000000000000000              realloc@@GLIBC_2.2.5
0000000000046090 g     F .text	00000000000001d5              .hidden cudaHostAlloc
000000000005ec30 g     F .text	0000000000000072              .hidden _ZN6cudart43cuosInitializeCriticalSectionWithSharedFlagEP15pthread_mutex_ti
0000000000000000       F *UND*	0000000000000000              pthread_once@@GLIBC_2.2.5
0000000000000000       F *UND*	0000000000000000              __strtoul_internal@@GLIBC_2.2.5
000000000031b598 g     O .bss	0000000000000008              .hidden _ZN6cudart18__fun_cuModuleLoadE
000000000031b620 g     O .bss	0000000000000008              .hidden _ZN6cudart18__fun_cuMemFree_v2E
000000000002fab0 g     F .text	0000000000000142              .hidden _ZN6cudart19contextStateManager18initPrimaryContextEPNS_6deviceE
0000000000000000       F *UND*	0000000000000000              __gxx_personality_v0@@CXXABI_1.3
000000000003c090 g     F .text	00000000000001f4              .hidden cudaGraphGetEdges
000000000031bc50 g     O .bss	0000000000000008              .hidden _ZN6cudart26__fun_cuGraphAddKernelNodeE
000000000003a2e0 g     F .text	000000000000027e              .hidden cudaMemcpy2DToArray
000000000031bb50 g     O .bss	0000000000000008              .hidden _ZN6cudart32__fun_cuEGLStreamProducerConnectE
0000000000063ca0 g     O .rodata	0000000000000004              cudartErrorTableEntryCount
0000000000041570 g     F .text	00000000000001b5              .hidden cudaGraphicsResourceSetMapFlags
0000000000044780 g     F .text	00000000000001f4              .hidden cudaMemcpy_ptds
00000000000520c0 g     F .text	00000000000001c3              .hidden cudaMemcpy3DPeerAsync
000000000003a9f0 g     F .text	0000000000000208              .hidden cudaMemcpyFromSymbol
0000000000046410 g     F .text	0000000000000192              .hidden cudaFreeArray
000000000005b150 g     F .text	0000000000000094              .hidden _ZN6cudart19cuosInterlockedOr64EPVyy
000000000005dc60 g     F .text	000000000000003b              .hidden _ZN6cudart9cuosFtellEP8_IO_FILEPy
000000000031b4b0 g     O .bss	0000000000000008              .hidden _ZN6cudart22__fun_cuDeviceGetCountE
0000000000000000       F *UND*	0000000000000000              pthread_rwlockattr_setpshared@@GLIBC_2.2.5
000000000000df00 g     F .text	000000000000002d              .hidden _ZN6cudart25toRuntimeMemsetNodeParamsEPK26CUDA_MEMSET_NODE_PARAMS_stP16cudaMemsetParams
000000000004ca10 g     F .text	00000000000001b5              .hidden cudaIpcGetMemHandle
00000000000584b0 g     F .text	00000000000001d8              .hidden cudaEGLStreamProducerReturnFrame
00000000000089f1 g     F .text	000000000000002b              _Z14cuda_reductionPdiS_
000000000001dcd0 g     F .text	000000000000007d              .hidden _ZN6cudart11globalStateC2Ev
000000000003cbb0 g     F .text	00000000000001f4              .hidden cudaGraphAddEmptyNode
0000000000000000       F *UND*	0000000000000000              __tls_get_addr@@GLIBC_2.3
000000000002a4c0 g     F .text	00000000000002ce              .hidden _ZN6cudart12contextState13deleteTextureEPK16textureReference
000000000001dbd0 g     F .text	000000000000004a              .hidden _ZN6cudart14GlobalStateRef9tryRetainEv
000000000031b538 g     O .bss	0000000000000008              .hidden _ZN6cudart21__fun_cuCtxGetCurrentE
000000000031bc78 g     O .bss	0000000000000008              .hidden _ZN6cudart32__fun_cuGraphMemcpyNodeSetParamsE
0000000000036110 g     F .text	0000000000000064              .hidden _ZN6cudart12driverHelper18driverMemcpy3DPeerEP21CUDA_MEMCPY3D_PEER_stP11CUstream_stbb
000000000031b910 g     O .bss	0000000000000008              .hidden _ZN6cudart35__fun_cuWaitExternalSemaphoresAsyncE
000000000005dfd0 g     F .text	0000000000000054              .hidden _ZN6cudart12cuosPipeReadEPNS_11CUOSpipe_stEPvm
000000000031b708 g     O .bss	0000000000000008              .hidden _ZN6cudart31__fun_cuMemcpyDtoDAsync_v2_ptszE
000000000031b888 g     O .bss	0000000000000008              .hidden _ZN6cudart28__fun_cuTexRefGetBorderColorE
0000000000059a00 g     F .text	0000000000000008              .hidden _ZN6cudart21cuosProcessorMaskSizeEv
000000000001cf60 g     F .text	0000000000000062              .hidden _ZN6cudart12globalModuleC2EPv
000000000031b928 g     O .bss	0000000000000008              .hidden _ZN6cudart20__fun_cuLaunchKernelE
000000000031ba70 g     O .bss	0000000000000008              .hidden _ZN6cudart33__fun_cuStreamAttachMemAsync_ptszE
0000000000058e40 g     F .text	00000000000001f4              .hidden cudaEGLStreamConsumerAcquireFrame
000000000005ddd0 g     F .text	000000000000002c              .hidden _ZN6cudart10cuosFwriteEP8_IO_FILEPKvm
000000000031ba48 g     O .bss	0000000000000008              .hidden _ZN6cudart25__fun_cuStreamSynchronizeE
000000000000eea0 g     F .text	000000000000009b              .hidden __cudaRegisterManagedVar
000000000031bbc0 g     O .bss	0000000000000008              .hidden _ZN6cudart43__fun_cuGraphicsResourceGetMappedPointer_v2E
000000000004f1e0 g     F .text	00000000000001c2              .hidden cudaStreamIsCapturing
000000000005e0d0 g     F .text	0000000000000025              .hidden _ZN6cudart9cuosCPUIDEPii
000000000006a860  w    O .rodata	00000000000000c0              .hidden _ZZN6cudart3setINS_3mapIPKvPNS_17cudaEntryFunctionEE5entryEE8get_sizeEjPmE5SIZES
000000000005e100 g     F .text	000000000000002f              .hidden _ZN6cudart22cuosPipeGetWriteStreamEPNS_11CUOSpipe_stE
0000000000054c00 g     F .text	000000000000023e              .hidden cudaMemcpyFromSymbolAsync_ptsz
000000000005f480 g     F .text	000000000000004a              .hidden _ZN6cudart11cuosShmOpenEPKc
000000000005f540 g     F .text	0000000000000017              .hidden _ZN6cudart21cuosLoadLibraryUnsafeEPKc
000000000005b9e0 g     F .text	00000000000001cc              .hidden _ZN6cudart14cuosSocketSendEPNS_10CUOSsocketEPNS_13CUOSsocketMsgE
0000000000000000       F *UND*	0000000000000000              sem_init@@GLIBC_2.2.5
000000000000ed30 g     F .text	000000000000007e              .hidden __cudaRegisterSurface
000000000031b750 g     O .bss	0000000000000008              .hidden _ZN6cudart20__fun_cuMemcpy3DPeerE
000000000031b880 g     O .bss	0000000000000008              .hidden _ZN6cudart28__fun_cuTexRefSetBorderColorE
0000000000000000  w      *UND*	0000000000000000              _ITM_deregisterTMCloneTable
000000000031bb30 g     O .bss	0000000000000008              .hidden _ZN6cudart32__fun_cuEGLStreamConsumerConnectE
0000000000049f50 g     F .text	00000000000001d8              .hidden cudaStreamCreateWithPriority
0000000000000000       F *UND*	0000000000000000              shm_open@@GLIBC_2.2.5
000000000005ed90 g     F .text	0000000000000008              .hidden _ZN6cudart11cuosTlsFreeEj
000000000031b088 g     O .nvFatBinSegment	0000000000000018              __fatbinwrap_38_cuda_device_runtime_compute_75_cpp1_ii_8b1a5d37
0000000000000000       F *UND*	0000000000000000              _Unwind_Resume@@GCC_3.0
000000000005e740 g     F .text	0000000000000038              .hidden _ZN6cudart16cuosThreadDetachEPNS_13CUOSthread_stE
000000000031bbb8 g     O .bss	0000000000000008              .hidden _ZN6cudart47__fun_cuGraphicsResourceGetMappedMipmappedArrayE
00000000000249b0 g     F .text	0000000000000045              .hidden _ZN6cudart14GlobalStateRefD2Ev
000000000001cc70 g     F .text	0000000000000004              .hidden _ZN6cudart14GlobalStateRefC1Ev
000000000005e310 g     F .text	000000000000002b              .hidden _ZN6cudart10cuosShmMapEPvm
0000000000000000       F *UND*	0000000000000000              mmap@@GLIBC_2.2.5
0000000000000000       F *UND*	0000000000000000              setsockopt@@GLIBC_2.2.5
000000000005e870 g     F .text	0000000000000005              .hidden _ZN6cudart15cuosThreadYieldEv
000000000006a6e0  w    O .rodata	00000000000000c0              .hidden _ZZN6cudart3setINS_3mapIPK16textureReferencePNS_11cudaTextureEE5entryEE8get_sizeEjPmE5SIZES
0000000000046b00 g     F .text	00000000000001eb              .hidden cudaMallocPitch
00000000000595c0 g     F .text	00000000000001d8              .hidden cudaGraphicsVDPAURegisterVideoSurface
000000000031b690 g     O .bss	0000000000000008              .hidden _ZN6cudart18__fun_cuMemcpyPeerE
0000000000000000       F *UND*	0000000000000000              remove@@GLIBC_2.2.5
0000000000060a30 g     F .text	0000000000000002              __libc_csu_fini
0000000000059f30 g     F .text	0000000000000060              .hidden _ZN6cudart29cuosGetCurrentProcessExecPathEPPc
000000000031bbe8 g     O .bss	0000000000000008              .hidden _ZN6cudart25__fun_cuVDPAUCtxCreate_v2E
00000000000599a0 g     F .text	0000000000000017              .hidden _ZN6cudart35cuosServerSocketGetDataArrivedEventEPNS_16CUOSserverSocketEPNS_9cuosEventE
0000000000046270 g     F .text	000000000000019a              .hidden cudaFreeMipmappedArray
000000000031bd18 g     O .bss	0000000000000008              .hidden _ZN6cudart24__fun_cuGraphDestroyNodeE
0000000000000000       F *UND*	0000000000000000              pthread_mutexattr_settype@@GLIBC_2.2.5
000000000004fce0 g     F .text	00000000000001c2              .hidden cudaStreamBeginCapture
000000000005a690 g     F .text	0000000000000184              .hidden _ZN6cudart14cuosSocketReadEPNS_10CUOSsocketEPvm
000000000005ad20 g     F .text	0000000000000102              .hidden _ZN6cudart24cuosEventCreateWithFlagsEPNS_9cuosEventEj
000000000031b858 g     O .bss	0000000000000008              .hidden _ZN6cudart33__fun_cuTexRefSetMipmapFilterModeE
0000000000055ef0 g     F .text	00000000000001c3              .hidden cudaMemcpy3DAsync_ptsz
000000000000f080 g     F .text	0000000000000099              .hidden _ZN6cudart25toRuntimeKernelNodeParamsEPK26CUDA_KERNEL_NODE_PARAMS_stP20cudaKernelNodeParams
0000000000000000       F *UND*	0000000000000000              pthread_setspecific@@GLIBC_2.2.5
0000000000000000       F *UND*	0000000000000000              strdup@@GLIBC_2.2.5
000000000006a9e0  w    O .rodata	00000000000000c0              .hidden _ZZN6cudart3setIPK16textureReferenceE8get_sizeEjPmE5SIZES
000000000005de10 g     F .text	0000000000000056              .hidden _ZN6cudart9cuosFopenEPKcmPP8_IO_FILE
000000000031b9d8 g     O .bss	0000000000000008              .hidden _ZN6cudart24__fun_cuStreamBatchMemOpE
000000000031b728 g     O .bss	0000000000000008              .hidden _ZN6cudart29__fun_cuMemcpy2DAsync_v2_ptszE
000000000005dd00 g     F .text	000000000000005e              .hidden _ZN6cudart9cuosFgetcEP8_IO_FILEPc
000000000005eec0 g     F .text	0000000000000005              .hidden _ZN6cudart18cuosGetProcAddressEPvPKc
000000000005a010 g     F .text	0000000000000018              .hidden _ZN6cudart21cuosServerSocketCloseEPNS_16CUOSserverSocketE
000000000031baa8 g     O .bss	0000000000000008              .hidden _ZN6cudart24__fun_cuIpcOpenMemHandleE
0000000000043e10 g     F .text	000000000000027e              .hidden cudaMemcpy2DFromArray_ptds
0000000000000000       F *UND*	0000000000000000              dlsym@@GLIBC_2.2.5
000000000031b748 g     O .bss	0000000000000008              .hidden _ZN6cudart29__fun_cuMemcpy3DAsync_v2_ptszE
000000000031b930 g     O .bss	0000000000000008              .hidden _ZN6cudart25__fun_cuLaunchKernel_ptszE
000000000031b9a8 g     O .bss	0000000000000008              .hidden _ZN6cudart26__fun_cuStreamWriteValue32E
000000000005df00 g     F .text	00000000000000ca              .hidden _ZN6cudart18cuosGetRandomBytesEPvm
000000000031b248 g     O .bss	0000000000000008              cudartErrorCnpMap
00000000000418d0 g     F .text	000000000000018f              .hidden cudaDeviceDisablePeerAccess
000000000005eac0 g     F .text	0000000000000008              .hidden _ZN6cudart19cuosDestroyRWLockExEPPv
0000000000000000       F *UND*	0000000000000000              shmdt@@GLIBC_2.2.5
000000000031b4a8 g     O .bss	0000000000000008              .hidden _ZN6cudart17__fun_cuDeviceGetE
0000000000055b00 g     F .text	000000000000021f              .hidden cudaMemcpyAsync_ptsz
0000000000040fd0 g     F .text	00000000000001b5              .hidden cudaGraphicsResourceGetMappedMipmappedArray
000000000031ba68 g     O .bss	0000000000000008              .hidden _ZN6cudart28__fun_cuStreamAttachMemAsyncE
0000000000000000       F *UND*	0000000000000000              lseek@@GLIBC_2.2.5
00000000000480c0 g     F .text	00000000000001d8              .hidden cudaLaunchCooperativeKernelMultiDevice
0000000000000000       F *UND*	0000000000000000              __libc_start_main@@GLIBC_2.2.5
000000000031b7a8 g     O .bss	0000000000000008              .hidden _ZN6cudart28__fun_cuMemsetD2D8Async_ptszE
000000000005a9b0 g     F .text	0000000000000018              .hidden _ZN6cudart14cuosIpcDestroyEPc
000000000031b990 g     O .bss	0000000000000008              .hidden _ZN6cudart24__fun_cuEventElapsedTimeE
0000000000000000       F *UND*	0000000000000000              ferror@@GLIBC_2.2.5
00000000000454e0 g     F .text	0000000000000269              .hidden cudaMalloc3DArray
000000000031bd60 g     O .bss	0000000000000008              .hidden _ZN6cudart34__fun_cuStreamBeginCapture_v2_ptszE
000000000031b648 g     O .bss	0000000000000008              .hidden _ZN6cudart23__fun_cuMemHostGetFlagsE
000000000005dca0 g     F .text	000000000000005e              .hidden _ZN6cudart9cuosFseekEP8_IO_FILEyNS_12cuosSeekEnumE
0000000000000000  w      *UND*	0000000000000000              __gmon_start__
000000000005b3b0 g     F .text	000000000000000d              .hidden _ZN6cudart24cuosInterlockedIncrementEPVj
0000000000060980  w    F .text	000000000000001a              .hidden _ZN6cudart3setIPNS_12contextStateEE8get_sizeEjPm
0000000000038ee0 g     F .text	00000000000002e0              .hidden cudaMemset3D
0000000000000000       F *UND*	0000000000000000              _ZNSolsEd@@GLIBCXX_3.4
000000000003b520 g     F .text	0000000000000208              .hidden cudaGraphInstantiate
000000000005ea40 g     F .text	0000000000000060              .hidden _ZN6cudart28cuosCondCreateWithSharedFlagEP14pthread_cond_ti
0000000000317f40 g     O .data.rel.ro	0000000000000008              .hidden _ZN6cudart17g_descriptorTableE
0000000000000000  w      *UND*	0000000000000000              _ITM_registerTMCloneTable
0000000000057960 g     F .text	00000000000001c3              .hidden cudaGLUnmapBufferObjectAsync
000000000031b550 g     O .bss	0000000000000008              .hidden _ZN6cudart20__fun_cuCtxGetDeviceE
0000000000000000       F *UND*	0000000000000000              fscanf@@GLIBC_2.2.5
000000000005fd40 g     F .text	0000000000000054              .hidden _ZN6cudart14cuosCondCreateEP14pthread_cond_t
000000000031b8d0 g     O .bss	0000000000000008              .hidden _ZN6cudart33__fun_cuSurfObjectGetResourceDescE
00000000000482a0 g     F .text	00000000000002e2              .hidden cudaLaunchCooperativeKernel_ptsz
000000000004e6b0 g     F .text	0000000000000200              .hidden cudaSignalExternalSemaphoresAsync_ptsz
000000000031b5a8 g     O .bss	0000000000000008              .hidden _ZN6cudart27__fun_cuModuleLoadFatBinaryE
0000000000040dc0 g     F .text	0000000000000208              .hidden cudaBindTexture
000000000004cee0 g     F .text	00000000000001b5              .hidden cudaIpcGetEventHandle
0000000000000000       F *UND*	0000000000000000              pthread_cond_destroy@@GLIBC_2.3.2
000000000000dfb0 g     F .text	0000000000000039              .hidden _ZN6cudart28toRuntimeStreamCaptureStatusE26CUstreamCaptureStatus_enumP23cudaStreamCaptureStatus
0000000000000000       F *UND*	0000000000000000              fwrite@@GLIBC_2.2.5
0000000000000000       F *UND*	0000000000000000              close@@GLIBC_2.2.5
000000000005f020 g     F .text	000000000000000a              .hidden _ZN6cudart10cuosSetEnvEPKcS1_
000000000031bd68 g     O .bss	0000000000000008              .hidden _ZN6cudart24__fun_cuStreamEndCaptureE
00000000000608c0  w    F .text	000000000000001a              .hidden _ZN6cudart3setIPNS_6moduleEE8get_sizeEjPm
000000000031b8d8 g     O .bss	0000000000000008              .hidden _ZN6cudart28__fun_cuImportExternalMemoryE
0000000000054e40 g     F .text	000000000000023e              .hidden cudaMemcpyToSymbolAsync_ptsz
000000000031bd78 g     O .bss	0000000000000008              .hidden _ZN6cudart25__fun_cuStreamIsCapturingE
000000000004ba20 g     F .text	000000000000016f              .hidden cudaGetLastError
000000000004b5b0 g     F .text	0000000000000177              .hidden cudaGetErrorString
0000000000000000       F *UND*	0000000000000000              __getdelim@@GLIBC_2.2.5
0000000000038d60 g     F .text	0000000000000172              .hidden cudaDeviceReset
0000000000000000       F *UND*	0000000000000000              _ZNSt8ios_base4InitD1Ev@@GLIBCXX_3.4
000000000005eb10 g     F .text	0000000000000025              .hidden _ZN6cudart24cuosTryAcquireReaderLockEPPv


